(dp1
S'output'
p2
S"<class 'sqlite3.IntegrityError'> NOT NULL constraint failed: bench_control_objective.benchmark_id"
p3
sS'layer'
p4
S'/home/grcbit/web2py/applications/grcdev/controllers/grc_demo_data.py'
p5
sS'code'
p6
S'<code object <module> at 0x7faec0d2dab0, file "/home/grcbit/web2py/applications/grcdev/controllers/grc_demo_data.py", line 4>'
p7
sS'snapshot'
p8
(dp9
S'exception'
p10
(dp11
S'__module__'
p12
S"'sqlite3'"
p13
sS'__getslice__'
p14
S"<method-wrapper '__getslice__' of IntegrityError object>"
p15
sS'__str__'
p16
S"<method-wrapper '__str__' of IntegrityError object>"
p17
sS'__reduce__'
p18
S'<built-in method __reduce__ of IntegrityError object>'
p19
sS'__dict__'
p20
S'{}'
p21
sS'__sizeof__'
p22
S'<built-in method __sizeof__ of IntegrityError object>'
p23
sS'__weakref__'
p24
S'None'
p25
sS'message'
p26
S"'NOT NULL constraint failed: bench_control_objective.benchmark_id'"
p27
sS'__init__'
p28
S"<method-wrapper '__init__' of IntegrityError object>"
p29
sS'__setattr__'
p30
S"<method-wrapper '__setattr__' of IntegrityError object>"
p31
sS'__reduce_ex__'
p32
S'<built-in method __reduce_ex__ of IntegrityError object>'
p33
sS'__new__'
p34
S'<built-in method __new__ of type object>'
p35
sS'__format__'
p36
S'<built-in method __format__ of IntegrityError object>'
p37
sS'__class__'
p38
S"<class 'sqlite3.IntegrityError'>"
p39
sS'__doc__'
p40
S'None'
p41
sS'__getitem__'
p42
S"<method-wrapper '__getitem__' of IntegrityError object>"
p43
sS'__setstate__'
p44
S'<built-in method __setstate__ of IntegrityError object>'
p45
sS'__getattribute__'
p46
S"<method-wrapper '__getattribute__' of IntegrityError object>"
p47
sS'args'
p48
S"('NOT NULL constraint failed: bench_control_objective.benchmark_id',)"
p49
sS'__subclasshook__'
p50
S'<built-in method __subclasshook__ of type object>'
p51
sS'__unicode__'
p52
S'<built-in method __unicode__ of IntegrityError object>'
p53
sS'__delattr__'
p54
S"<method-wrapper '__delattr__' of IntegrityError object>"
p55
sS'__repr__'
p56
S"<method-wrapper '__repr__' of IntegrityError object>"
p57
sS'__hash__'
p58
S"<method-wrapper '__hash__' of IntegrityError object>"
p59
ssS'evalue'
p60
S'NOT NULL constraint failed: bench_control_objective.benchmark_id'
p61
sS'request'
p62
cgluon.html
XML_unpickle
p63
(S's\xa3h\x00\x00<div><table><tr><td style="font-weight:bold;vertical-align:top;">ajax</td><td style="vertical-align:top;">:</td><td><div>False</div></td></tr><tr><td style="font-weight:bold;vertical-align:top;">application</td><td style="vertical-align:top;">:</td><td><div>grcdev</div></td></tr><tr><td style="font-weight:bold;vertical-align:top;">args</td><td style="vertical-align:top;">:</td><td><div><table></table></div></td></tr><tr><td style="font-weight:bold;vertical-align:top;">cid</td><td style="vertical-align:top;">:</td><td><div>None</div></td></tr><tr><td style="font-weight:bold;vertical-align:top;">client</td><td style="vertical-align:top;">:</td><td><div>148.244.169.125</div></td></tr><tr><td style="font-weight:bold;vertical-align:top;">controller</td><td style="vertical-align:top;">:</td><td><div>grc_demo_data</div></td></tr><tr><td style="font-weight:bold;vertical-align:top;">cookies</td><td style="vertical-align:top;">:</td><td><div><table><tr><td style="font-weight:bold;vertical-align:top;">session_id_admin</td><td style="vertical-align:top;">:</td><td><div>148.244.169.125-7c381d06-3e9b-46ef-8e7e-285002d0c29a<table><tr><td style="font-weight:bold;vertical-align:top;">comment</td><td style="vertical-align:top;">:</td><td><div></div></td></tr><tr><td style="font-weight:bold;vertical-align:top;">domain</td><td style="vertical-align:top;">:</td><td><div></div></td></tr><tr><td style="font-weight:bold;vertical-align:top;">expires</td><td style="vertical-align:top;">:</td><td><div></div></td></tr><tr><td style="font-weight:bold;vertical-align:top;">httponly</td><td style="vertical-align:top;">:</td><td><div></div></td></tr><tr><td style="font-weight:bold;vertical-align:top;">max-age</td><td style="vertical-align:top;">:</td><td><div></div></td></tr><tr><td style="font-weight:bold;vertical-align:top;">path</td><td style="vertical-align:top;">:</td><td><div></div></td></tr><tr><td style="font-weight:bold;vertical-align:top;">samesite</td><td style="vertical-align:top;">:</td><td><div></div></td></tr><tr><td style="font-weight:bold;vertical-align:top;">secure</td><td style="vertical-align:top;">:</td><td><div></div></td></tr><tr><td style="font-weight:bold;vertical-align:top;">version</td><td style="vertical-align:top;">:</td><td><div></div></td></tr></table></div></td></tr><tr><td style="font-weight:bold;vertical-align:top;">session_id_grcd</td><td style="vertical-align:top;">:</td><td><div>148.244.169.125-3405f843-8340-4a06-a6e1-433c14a23f37<table><tr><td style="font-weight:bold;vertical-align:top;">comment</td><td style="vertical-align:top;">:</td><td><div></div></td></tr><tr><td style="font-weight:bold;vertical-align:top;">domain</td><td style="vertical-align:top;">:</td><td><div></div></td></tr><tr><td style="font-weight:bold;vertical-align:top;">expires</td><td style="vertical-align:top;">:</td><td><div></div></td></tr><tr><td style="font-weight:bold;vertical-align:top;">httponly</td><td style="vertical-align:top;">:</td><td><div></div></td></tr><tr><td style="font-weight:bold;vertical-align:top;">max-age</td><td style="vertical-align:top;">:</td><td><div></div></td></tr><tr><td style="font-weight:bold;vertical-align:top;">path</td><td style="vertical-align:top;">:</td><td><div></div></td></tr><tr><td style="font-weight:bold;vertical-align:top;">samesite</td><td style="vertical-align:top;">:</td><td><div></div></td></tr><tr><td style="font-weight:bold;vertical-align:top;">secure</td><td style="vertical-align:top;">:</td><td><div></div></td></tr><tr><td style="font-weight:bold;vertical-align:top;">version</td><td style="vertical-align:top;">:</td><td><div></div></td></tr></table></div></td></tr><tr><td style="font-weight:bold;vertical-align:top;">session_id_grcdemo</td><td style="vertical-align:top;">:</td><td><div>189.203.5.198-31cfab7d-443d-4bf5-9081-c7489a365dd0<table><tr><td style="font-weight:bold;vertical-align:top;">comment</td><td style="vertical-align:top;">:</td><td><div></div></td></tr><tr><td style="font-weight:bold;vertical-align:top;">domain</td><td style="vertical-align:top;">:</td><td><div></div></td></tr><tr><td style="font-weight:bold;vertical-align:top;">expires</td><td style="vertical-align:top;">:</td><td><div></div></td></tr><tr><td style="font-weight:bold;vertical-align:top;">httponly</td><td style="vertical-align:top;">:</td><td><div></div></td></tr><tr><td style="font-weight:bold;vertical-align:top;">max-age</td><td style="vertical-align:top;">:</td><td><div></div></td></tr><tr><td style="font-weight:bold;vertical-align:top;">path</td><td style="vertical-align:top;">:</td><td><div></div></td></tr><tr><td style="font-weight:bold;vertical-align:top;">samesite</td><td style="vertical-align:top;">:</td><td><div></div></td></tr><tr><td style="font-weight:bold;vertical-align:top;">secure</td><td style="vertical-align:top;">:</td><td><div></div></td></tr><tr><td style="font-weight:bold;vertical-align:top;">version</td><td style="vertical-align:top;">:</td><td><div></div></td></tr></table></div></td></tr><tr><td style="font-weight:bold;vertical-align:top;">session_id_grcdev</td><td style="vertical-align:top;">:</td><td><div>148.244.169.125-e2df492b-c267-412c-b012-76c071a1481f<table><tr><td style="font-weight:bold;vertical-align:top;">comment</td><td style="vertical-align:top;">:</td><td><div></div></td></tr><tr><td style="font-weight:bold;vertical-align:top;">domain</td><td style="vertical-align:top;">:</td><td><div></div></td></tr><tr><td style="font-weight:bold;vertical-align:top;">expires</td><td style="vertical-align:top;">:</td><td><div></div></td></tr><tr><td style="font-weight:bold;vertical-align:top;">httponly</td><td style="vertical-align:top;">:</td><td><div></div></td></tr><tr><td style="font-weight:bold;vertical-align:top;">max-age</td><td style="vertical-align:top;">:</td><td><div></div></td></tr><tr><td style="font-weight:bold;vertical-align:top;">path</td><td style="vertical-align:top;">:</td><td><div></div></td></tr><tr><td style="font-weight:bold;vertical-align:top;">samesite</td><td style="vertical-align:top;">:</td><td><div></div></td></tr><tr><td style="font-weight:bold;vertical-align:top;">secure</td><td style="vertical-align:top;">:</td><td><div></div></td></tr><tr><td style="font-weight:bold;vertical-align:top;">version</td><td style="vertical-align:top;">:</td><td><div></div></td></tr></table></div></td></tr></table></div></td></tr><tr><td style="font-weight:bold;vertical-align:top;">env</td><td style="vertical-align:top;">:</td><td><div><table><tr><td style="font-weight:bold;vertical-align:top;">CONTENT_LENGTH</td><td style="vertical-align:top;">:</td><td><div></div></td></tr><tr><td style="font-weight:bold;vertical-align:top;">CONTENT_TYPE</td><td style="vertical-align:top;">:</td><td><div></div></td></tr><tr><td style="font-weight:bold;vertical-align:top;">DOCUMENT_ROOT</td><td style="vertical-align:top;">:</td><td><div>/usr/local/openresty/nginx/html</div></td></tr><tr><td style="font-weight:bold;vertical-align:top;">HTTPS</td><td style="vertical-align:top;">:</td><td><div>on</div></td></tr><tr><td style="font-weight:bold;vertical-align:top;">HTTP_ACCEPT</td><td style="vertical-align:top;">:</td><td><div>text/html,application/xhtml+xml,application/xml;q=0.9,image/avif,image/webp,image/apng,*/*;q=0.8,application/signed-exchange;v=b3;q=0.9</div></td></tr><tr><td style="font-weight:bold;vertical-align:top;">HTTP_ACCEPT_ENCODING</td><td style="vertical-align:top;">:</td><td><div>gzip, deflate, br</div></td></tr><tr><td style="font-weight:bold;vertical-align:top;">HTTP_ACCEPT_LANGUAGE</td><td style="vertical-align:top;">:</td><td><div>es-419,es;q=0.9</div></td></tr><tr><td style="font-weight:bold;vertical-align:top;">HTTP_CONNECTION</td><td style="vertical-align:top;">:</td><td><div>close</div></td></tr><tr><td style="font-weight:bold;vertical-align:top;">HTTP_COOKIE</td><td style="vertical-align:top;">:</td><td><div>session_id_admin=148.244.169.125-7c381d06-3e9b-46ef-8e7e-285002d0c29a; session_id_grcd=148.244.169.125-3405f843-8340-4a06-a6e1-433c14a23f37; session_id_grcdemo=189.203.5.198-31cfab7d-443d-4bf5-9081-c7489a365dd0; session_id_grcdev=148.244.169.125-e2df492b-c267-412c-b012-76c071a1481f</div></td></tr><tr><td style="font-weight:bold;vertical-align:top;">HTTP_HOST</td><td style="vertical-align:top;">:</td><td><div>w2p-grcbit.pythonanywhere.com</div></td></tr><tr><td style="font-weight:bold;vertical-align:top;">HTTP_REFERER</td><td style="vertical-align:top;">:</td><td><div>https://w2p-grcbit.pythonanywhere.com/grcdev/default/grc_settings</div></td></tr><tr><td style="font-weight:bold;vertical-align:top;">HTTP_SEC_CH_UA</td><td style="vertical-align:top;">:</td><td><div>&quot;Chromium&quot;;v=&quot;92&quot;, &quot; Not A;Brand&quot;;v=&quot;99&quot;, &quot;Google Chrome&quot;;v=&quot;92&quot;</div></td></tr><tr><td style="font-weight:bold;vertical-align:top;">HTTP_SEC_CH_UA_MOBILE</td><td style="vertical-align:top;">:</td><td><div>?0</div></td></tr><tr><td style="font-weight:bold;vertical-align:top;">HTTP_SEC_FETCH_DEST</td><td style="vertical-align:top;">:</td><td><div>document</div></td></tr><tr><td style="font-weight:bold;vertical-align:top;">HTTP_SEC_FETCH_MODE</td><td style="vertical-align:top;">:</td><td><div>navigate</div></td></tr><tr><td style="font-weight:bold;vertical-align:top;">HTTP_SEC_FETCH_SITE</td><td style="vertical-align:top;">:</td><td><div>same-origin</div></td></tr><tr><td style="font-weight:bold;vertical-align:top;">HTTP_SEC_FETCH_USER</td><td style="vertical-align:top;">:</td><td><div>?1</div></td></tr><tr><td style="font-weight:bold;vertical-align:top;">HTTP_UPGRADE_INSECURE_REQUESTS</td><td style="vertical-align:top;">:</td><td><div>1</div></td></tr><tr><td style="font-weight:bold;vertical-align:top;">HTTP_USER_AGENT</td><td style="vertical-align:top;">:</td><td><div>Mozilla/5.0 (Windows NT 10.0; Win64; x64) AppleWebKit/537.36 (KHTML, like Gecko) Chrome/92.0.4515.159 Safari/537.36</div></td></tr><tr><td style="font-weight:bold;vertical-align:top;">HTTP_X_FORWARDED_FOR</td><td style="vertical-align:top;">:</td><td><div>148.244.169.125</div></td></tr><tr><td style="font-weight:bold;vertical-align:top;">HTTP_X_REAL_IP</td><td style="vertical-align:top;">:</td><td><div>148.244.169.125</div></td></tr><tr><td style="font-weight:bold;vertical-align:top;">PATH_INFO</td><td style="vertical-align:top;">:</td><td><div>/grcdev/grc_demo_data/_load_demo_data</div></td></tr><tr><td style="font-weight:bold;vertical-align:top;">QUERY_STRING</td><td style="vertical-align:top;">:</td><td><div></div></td></tr><tr><td style="font-weight:bold;vertical-align:top;">REMOTE_ADDR</td><td style="vertical-align:top;">:</td><td><div>10.0.0.224</div></td></tr><tr><td style="font-weight:bold;vertical-align:top;">REMOTE_PORT</td><td style="vertical-align:top;">:</td><td><div>34214</div></td></tr><tr><td style="font-weight:bold;vertical-align:top;">REQUEST_METHOD</td><td style="vertical-align:top;">:</td><td><div>GET</div></td></tr><tr><td style="font-weight:bold;vertical-align:top;">REQUEST_URI</td><td style="vertical-align:top;">:</td><td><div>/grcdev/grc_demo_data/_load_demo_data</div></td></tr><tr><td style="font-weight:bold;vertical-align:top;">SCRIPT_NAME</td><td style="vertical-align:top;">:</td><td><div></div></td></tr><tr><td style="font-weight:bold;vertical-align:top;">SERVER_NAME</td><td style="vertical-align:top;">:</td><td><div>w2p-grcbit.pythonanywhere.com</div></td></tr><tr><td style="font-weight:bold;vertical-align:top;">SERVER_PORT</td><td style="vertical-align:top;">:</td><td><div>443</div></td></tr><tr><td style="font-weight:bold;vertical-align:top;">SERVER_PROTOCOL</td><td style="vertical-align:top;">:</td><td><div>HTTP/1.1</div></td></tr><tr><td style="font-weight:bold;vertical-align:top;">app_folders</td><td style="vertical-align:top;">:</td><td><div>set([&#x27;/home/grcbit/web2py/applications/grcdemo&#x27;, &#x27;/home/grcbit/web2py/applications/admin&#x27;, &#x27;/home/grcbit/web2py/applications/grcdev&#x27;])</div></td></tr><tr><td style="font-weight:bold;vertical-align:top;">applications_parent</td><td style="vertical-align:top;">:</td><td><div>/home/grcbit/web2py</div></td></tr><tr><td style="font-weight:bold;vertical-align:top;">content_length</td><td style="vertical-align:top;">:</td><td><div></div></td></tr><tr><td style="font-weight:bold;vertical-align:top;">content_type</td><td style="vertical-align:top;">:</td><td><div></div></td></tr><tr><td style="font-weight:bold;vertical-align:top;">db_sessions</td><td style="vertical-align:top;">:</td><td><div>set([])</div></td></tr><tr><td style="font-weight:bold;vertical-align:top;">debugging</td><td style="vertical-align:top;">:</td><td><div>False</div></td></tr><tr><td style="font-weight:bold;vertical-align:top;">document_root</td><td style="vertical-align:top;">:</td><td><div>/usr/local/openresty/nginx/html</div></td></tr><tr><td style="font-weight:bold;vertical-align:top;">gluon_parent</td><td style="vertical-align:top;">:</td><td><div>/home/grcbit/web2py</div></td></tr><tr><td style="font-weight:bold;vertical-align:top;">http_accept</td><td style="vertical-align:top;">:</td><td><div>text/html,application/xhtml+xml,application/xml;q=0.9,image/avif,image/webp,image/apng,*/*;q=0.8,application/signed-exchange;v=b3;q=0.9</div></td></tr><tr><td style="font-weight:bold;vertical-align:top;">http_accept_encoding</td><td style="vertical-align:top;">:</td><td><div>gzip, deflate, br</div></td></tr><tr><td style="font-weight:bold;vertical-align:top;">http_accept_language</td><td style="vertical-align:top;">:</td><td><div>es-419,es;q=0.9</div></td></tr><tr><td style="font-weight:bold;vertical-align:top;">http_connection</td><td style="vertical-align:top;">:</td><td><div>close</div></td></tr><tr><td style="font-weight:bold;vertical-align:top;">http_cookie</td><td style="vertical-align:top;">:</td><td><div>session_id_admin=148.244.169.125-7c381d06-3e9b-46ef-8e7e-285002d0c29a; session_id_grcd=148.244.169.125-3405f843-8340-4a06-a6e1-433c14a23f37; session_id_grcdemo=189.203.5.198-31cfab7d-443d-4bf5-9081-c7489a365dd0; session_id_grcdev=148.244.169.125-e2df492b-c267-412c-b012-76c071a1481f</div></td></tr><tr><td style="font-weight:bold;vertical-align:top;">http_host</td><td style="vertical-align:top;">:</td><td><div>w2p-grcbit.pythonanywhere.com</div></td></tr><tr><td style="font-weight:bold;vertical-align:top;">http_referer</td><td style="vertical-align:top;">:</td><td><div>https://w2p-grcbit.pythonanywhere.com/grcdev/default/grc_settings</div></td></tr><tr><td style="font-weight:bold;vertical-align:top;">http_sec_ch_ua</td><td style="vertical-align:top;">:</td><td><div>&quot;Chromium&quot;;v=&quot;92&quot;, &quot; Not A;Brand&quot;;v=&quot;99&quot;, &quot;Google Chrome&quot;;v=&quot;92&quot;</div></td></tr><tr><td style="font-weight:bold;vertical-align:top;">http_sec_ch_ua_mobile</td><td style="vertical-align:top;">:</td><td><div>?0</div></td></tr><tr><td style="font-weight:bold;vertical-align:top;">http_sec_fetch_dest</td><td style="vertical-align:top;">:</td><td><div>document</div></td></tr><tr><td style="font-weight:bold;vertical-align:top;">http_sec_fetch_mode</td><td style="vertical-align:top;">:</td><td><div>navigate</div></td></tr><tr><td style="font-weight:bold;vertical-align:top;">http_sec_fetch_site</td><td style="vertical-align:top;">:</td><td><div>same-origin</div></td></tr><tr><td style="font-weight:bold;vertical-align:top;">http_sec_fetch_user</td><td style="vertical-align:top;">:</td><td><div>?1</div></td></tr><tr><td style="font-weight:bold;vertical-align:top;">http_upgrade_insecure_requests</td><td style="vertical-align:top;">:</td><td><div>1</div></td></tr><tr><td style="font-weight:bold;vertical-align:top;">http_user_agent</td><td style="vertical-align:top;">:</td><td><div>Mozilla/5.0 (Windows NT 10.0; Win64; x64) AppleWebKit/537.36 (KHTML, like Gecko) Chrome/92.0.4515.159 Safari/537.36</div></td></tr><tr><td style="font-weight:bold;vertical-align:top;">http_x_forwarded_for</td><td style="vertical-align:top;">:</td><td><div>148.244.169.125</div></td></tr><tr><td style="font-weight:bold;vertical-align:top;">http_x_real_ip</td><td style="vertical-align:top;">:</td><td><div>148.244.169.125</div></td></tr><tr><td style="font-weight:bold;vertical-align:top;">https</td><td style="vertical-align:top;">:</td><td><div>on</div></td></tr><tr><td style="font-weight:bold;vertical-align:top;">is_jython</td><td style="vertical-align:top;">:</td><td><div>False</div></td></tr><tr><td style="font-weight:bold;vertical-align:top;">is_py2</td><td style="vertical-align:top;">:</td><td><div>True</div></td></tr><tr><td style="font-weight:bold;vertical-align:top;">is_pypy</td><td style="vertical-align:top;">:</td><td><div>False</div></td></tr><tr><td style="font-weight:bold;vertical-align:top;">is_source</td><td style="vertical-align:top;">:</td><td><div>True</div></td></tr><tr><td style="font-weight:bold;vertical-align:top;">local_hosts</td><td style="vertical-align:top;">:</td><td><div><table><tr><td><div>35.173.69.207</div></td></tr><tr><td><div>w2p-grcbit.pythonanywhere.com</div></td></tr><tr><td><div>::ffff:127.0.0.1</div></td></tr><tr><td><div>::1</div></td></tr><tr><td><div>blue-liveweb9</div></td></tr><tr><td><div>localhost</div></td></tr><tr><td><div>127.0.0.1</div></td></tr></table></div></td></tr><tr><td style="font-weight:bold;vertical-align:top;">path_info</td><td style="vertical-align:top;">:</td><td><div>/grcdev/grc_demo_data/_load_demo_data</div></td></tr><tr><td style="font-weight:bold;vertical-align:top;">query_string</td><td style="vertical-align:top;">:</td><td><div></div></td></tr><tr><td style="font-weight:bold;vertical-align:top;">remote_addr</td><td style="vertical-align:top;">:</td><td><div>10.0.0.224</div></td></tr><tr><td style="font-weight:bold;vertical-align:top;">remote_port</td><td style="vertical-align:top;">:</td><td><div>34214</div></td></tr><tr><td style="font-weight:bold;vertical-align:top;">request_method</td><td style="vertical-align:top;">:</td><td><div>GET</div></td></tr><tr><td style="font-weight:bold;vertical-align:top;">request_uri</td><td style="vertical-align:top;">:</td><td><div>/grcdev/grc_demo_data/_load_demo_data</div></td></tr><tr><td style="font-weight:bold;vertical-align:top;">script_name</td><td style="vertical-align:top;">:</td><td><div></div></td></tr><tr><td style="font-weight:bold;vertical-align:top;">server_name</td><td style="vertical-align:top;">:</td><td><div>w2p-grcbit.pythonanywhere.com</div></td></tr><tr><td style="font-weight:bold;vertical-align:top;">server_port</td><td style="vertical-align:top;">:</td><td><div>443</div></td></tr><tr><td style="font-weight:bold;vertical-align:top;">server_protocol</td><td style="vertical-align:top;">:</td><td><div>HTTP/1.1</div></td></tr><tr><td style="font-weight:bold;vertical-align:top;">uwsgi.node</td><td style="vertical-align:top;">:</td><td><div>blue-liveweb9</div></td></tr><tr><td style="font-weight:bold;vertical-align:top;">uwsgi.version</td><td style="vertical-align:top;">:</td><td><div>2.0.17.1</div></td></tr><tr><td style="font-weight:bold;vertical-align:top;">uwsgi_node</td><td style="vertical-align:top;">:</td><td><div>blue-liveweb9</div></td></tr><tr><td style="font-weight:bold;vertical-align:top;">uwsgi_version</td><td style="vertical-align:top;">:</td><td><div>2.0.17.1</div></td></tr><tr><td style="font-weight:bold;vertical-align:top;">web2py_path</td><td style="vertical-align:top;">:</td><td><div>/home/grcbit/web2py</div></td></tr><tr><td style="font-weight:bold;vertical-align:top;">web2py_version</td><td style="vertical-align:top;">:</td><td><div>2.18.5-stable+timestamp.2019.04.08.04.22.03</div></td></tr><tr><td style="font-weight:bold;vertical-align:top;">wsgi.errors</td><td style="vertical-align:top;">:</td><td><div>&lt;uwsgi_file__bin_user_wsgi_wrapper.ErrorLogFile object at 0x7faec835c710&gt;</div></td></tr><tr><td style="font-weight:bold;vertical-align:top;">wsgi.file_wrapper</td><td style="vertical-align:top;">:</td><td><div>&lt;built-in function uwsgi_sendfile&gt;</div></td></tr><tr><td style="font-weight:bold;vertical-align:top;">wsgi.input</td><td style="vertical-align:top;">:</td><td><div>&lt;uwsgi._Input object at 0x7faec1280210&gt;</div></td></tr><tr><td style="font-weight:bold;vertical-align:top;">wsgi.multiprocess</td><td style="vertical-align:top;">:</td><td><div>True</div></td></tr><tr><td style="font-weight:bold;vertical-align:top;">wsgi.multithread</td><td style="vertical-align:top;">:</td><td><div>False</div></td></tr><tr><td style="font-weight:bold;vertical-align:top;">wsgi.run_once</td><td style="vertical-align:top;">:</td><td><div>False</div></td></tr><tr><td style="font-weight:bold;vertical-align:top;">wsgi.url_scheme</td><td style="vertical-align:top;">:</td><td><div>https</div></td></tr><tr><td style="font-weight:bold;vertical-align:top;">wsgi.version</td><td style="vertical-align:top;">:</td><td><div><table><tr><td><div>1</div></td></tr><tr><td><div>0</div></td></tr></table></div></td></tr><tr><td style="font-weight:bold;vertical-align:top;">wsgi_errors</td><td style="vertical-align:top;">:</td><td><div>&lt;uwsgi_file__bin_user_wsgi_wrapper.ErrorLogFile object at 0x7faec835c710&gt;</div></td></tr><tr><td style="font-weight:bold;vertical-align:top;">wsgi_file_wrapper</td><td style="vertical-align:top;">:</td><td><div>&lt;built-in function uwsgi_sendfile&gt;</div></td></tr><tr><td style="font-weight:bold;vertical-align:top;">wsgi_input</td><td style="vertical-align:top;">:</td><td><div>&lt;uwsgi._Input object at 0x7faec1280210&gt;</div></td></tr><tr><td style="font-weight:bold;vertical-align:top;">wsgi_multiprocess</td><td style="vertical-align:top;">:</td><td><div>True</div></td></tr><tr><td style="font-weight:bold;vertical-align:top;">wsgi_multithread</td><td style="vertical-align:top;">:</td><td><div>False</div></td></tr><tr><td style="font-weight:bold;vertical-align:top;">wsgi_run_once</td><td style="vertical-align:top;">:</td><td><div>False</div></td></tr><tr><td style="font-weight:bold;vertical-align:top;">wsgi_url_scheme</td><td style="vertical-align:top;">:</td><td><div>https</div></td></tr><tr><td style="font-weight:bold;vertical-align:top;">wsgi_version</td><td style="vertical-align:top;">:</td><td><div><table><tr><td><div>1</div></td></tr><tr><td><div>0</div></td></tr></table></div></td></tr></table></div></td></tr><tr><td style="font-weight:bold;vertical-align:top;">extension</td><td style="vertical-align:top;">:</td><td><div>html</div></td></tr><tr><td style="font-weight:bold;vertical-align:top;">folder</td><td style="vertical-align:top;">:</td><td><div>/home/grcbit/web2py/applications/grcdev</div></td></tr><tr><td style="font-weight:bold;vertical-align:top;">function</td><td style="vertical-align:top;">:</td><td><div>_load_demo_data</div></td></tr><tr><td style="font-weight:bold;vertical-align:top;">global_settings</td><td style="vertical-align:top;">:</td><td><div><table><tr><td style="font-weight:bold;vertical-align:top;">app_folders</td><td style="vertical-align:top;">:</td><td><div>set([&#x27;/home/grcbit/web2py/applications/grcdemo&#x27;, &#x27;/home/grcbit/web2py/applications/admin&#x27;, &#x27;/home/grcbit/web2py/applications/grcdev&#x27;])</div></td></tr><tr><td style="font-weight:bold;vertical-align:top;">applications_parent</td><td style="vertical-align:top;">:</td><td><div>/home/grcbit/web2py</div></td></tr><tr><td style="font-weight:bold;vertical-align:top;">db_sessions</td><td style="vertical-align:top;">:</td><td><div>set([])</div></td></tr><tr><td style="font-weight:bold;vertical-align:top;">debugging</td><td style="vertical-align:top;">:</td><td><div>False</div></td></tr><tr><td style="font-weight:bold;vertical-align:top;">gluon_parent</td><td style="vertical-align:top;">:</td><td><div>/home/grcbit/web2py</div></td></tr><tr><td style="font-weight:bold;vertical-align:top;">is_jython</td><td style="vertical-align:top;">:</td><td><div>False</div></td></tr><tr><td style="font-weight:bold;vertical-align:top;">is_py2</td><td style="vertical-align:top;">:</td><td><div>True</div></td></tr><tr><td style="font-weight:bold;vertical-align:top;">is_pypy</td><td style="vertical-align:top;">:</td><td><div>False</div></td></tr><tr><td style="font-weight:bold;vertical-align:top;">is_source</td><td style="vertical-align:top;">:</td><td><div>True</div></td></tr><tr><td style="font-weight:bold;vertical-align:top;">local_hosts</td><td style="vertical-align:top;">:</td><td><div><table><tr><td><div>35.173.69.207</div></td></tr><tr><td><div>w2p-grcbit.pythonanywhere.com</div></td></tr><tr><td><div>::ffff:127.0.0.1</div></td></tr><tr><td><div>::1</div></td></tr><tr><td><div>blue-liveweb9</div></td></tr><tr><td><div>localhost</div></td></tr><tr><td><div>127.0.0.1</div></td></tr></table></div></td></tr><tr><td style="font-weight:bold;vertical-align:top;">web2py_version</td><td style="vertical-align:top;">:</td><td><div>2.18.5-stable+timestamp.2019.04.08.04.22.03</div></td></tr></table></div></td></tr><tr><td style="font-weight:bold;vertical-align:top;">is_https</td><td style="vertical-align:top;">:</td><td><div>True</div></td></tr><tr><td style="font-weight:bold;vertical-align:top;">is_local</td><td style="vertical-align:top;">:</td><td><div>False</div></td></tr><tr><td style="font-weight:bold;vertical-align:top;">is_restful</td><td style="vertical-align:top;">:</td><td><div>False</div></td></tr><tr><td style="font-weight:bold;vertical-align:top;">is_scheduler</td><td style="vertical-align:top;">:</td><td><div>False</div></td></tr><tr><td style="font-weight:bold;vertical-align:top;">is_shell</td><td style="vertical-align:top;">:</td><td><div>False</div></td></tr><tr><td style="font-weight:bold;vertical-align:top;">method</td><td style="vertical-align:top;">:</td><td><div>GET</div></td></tr><tr><td style="font-weight:bold;vertical-align:top;">now</td><td style="vertical-align:top;">:</td><td><div>datetime.datetime(2021, 9, 14, 20, 8, 34, 103875)</div></td></tr><tr><td style="font-weight:bold;vertical-align:top;">raw_args</td><td style="vertical-align:top;">:</td><td><div></div></td></tr><tr><td style="font-weight:bold;vertical-align:top;">raw_extension</td><td style="vertical-align:top;">:</td><td><div>None</div></td></tr><tr><td style="font-weight:bold;vertical-align:top;">url</td><td style="vertical-align:top;">:</td><td><div>/grcdev/grc_demo_data/_load_demo_data</div></td></tr><tr><td style="font-weight:bold;vertical-align:top;">utcnow</td><td style="vertical-align:top;">:</td><td><div>datetime.datetime(2021, 9, 14, 20, 8, 34, 103887)</div></td></tr><tr><td style="font-weight:bold;vertical-align:top;">wsgi</td><td style="vertical-align:top;">:</td><td><div>&lt;gluon.main.LazyWSGI object at 0x7faec177c8d0&gt;</div></td></tr></table></div>'
tRp64
sS'frames'
p65
(lp66
(dp67
S'file'
p68
S'/home/grcbit/web2py/gluon/restricted.py'
p69
sS'dump'
p70
(dp71
S'environment'
p72
S"{'A': <class 'gluon.html.A'>, 'ANY_OF': <class 'pydal.validators.ANY_OF'>, 'ASSIGNJS': <function ASSIGNJS>, 'AppConfig': <function AppConfig>, 'Auth': <class 'gluon.tools.Auth'>, 'B': <class 'gluon.html.B'>, 'BEAUTIFY': <class 'gluon.html.BEAUTIFY'>, 'BODY': <class 'gluon.html.BODY'>, 'BR': <class 'gluon.html.BR'>, 'BUTTON': <class 'gluon.html.BUTTON'>, ...}"
p73
sS'ccode'
p74
S'<code object <module> at 0x7faec0d2dab0, file "/...ons/grcdev/controllers/grc_demo_data.py", line 4>'
p75
ssS'lnum'
p76
I219
sS'lines'
p77
(dp78
I214
S'    if environment is None:'
p79
sI215
S'        environment = {}'
p80
sI216
S"    environment['__file__'] = layer"
p81
sI217
S"    environment['__name__'] = '__restricted__'"
p82
sI218
S'    try:'
p83
sI219
S'        exec(ccode, environment)'
p84
sI220
S'    except HTTP:'
p85
sI221
S'        raise'
p86
sI222
S'    except RestrictedError:'
p87
sI223
S'        # do not encapsulate (obfuscate) the original RestrictedError'
p88
ssS'call'
p89
S'(ccode=<code object <module> at 0x7faec0d2dab0, file "/...ons/grcdev/controllers/grc_demo_data.py", line 4>, environment={\'A\': <class \'gluon.html.A\'>, \'ANY_OF\': <class \'pydal.validators.ANY_OF\'>, \'ASSIGNJS\': <function ASSIGNJS>, \'AppConfig\': <function AppConfig>, \'Auth\': <class \'gluon.tools.Auth\'>, \'B\': <class \'gluon.html.B\'>, \'BEAUTIFY\': <class \'gluon.html.BEAUTIFY\'>, \'BODY\': <class \'gluon.html.BODY\'>, \'BR\': <class \'gluon.html.BR\'>, \'BUTTON\': <class \'gluon.html.BUTTON\'>, ...}, layer=\'/home/grcbit/web2py/applications/grcdev/controllers/grc_demo_data.py\', scode=<code object <module> at 0x7faec0d2dab0, file "/...ons/grcdev/controllers/grc_demo_data.py", line 4>)'
p90
sS'func'
p91
S'restricted'
p92
sa(dp93
g68
S'/home/grcbit/web2py/applications/grcdev/controllers/grc_demo_data.py'
p94
sg70
(dp95
sg76
I394
sg77
(dp96
I384
S'        #---------------------'
p97
sI385
S'        #Gestion de Proyectos'
p98
sI386
S'        #---------------------'
p99
sI387
S'        db.control_catalog.update_or_insert((db.control_catalog.id==18), id=18, name="Gesti\xc3\xb3n de Proyectos (Program Management)", description="PM-1 Information Security Program Plan, PM-2 Senior Information Security Officer, PM-3 Information Security Resources, PM-4 Plan of Action and Milestones Process, PM-5 Information System Inventory, PM-6 Information Security Measures of Performance, PM-7 Enterprise Architecture, PM-8 Critical Infrastructure Plan, PM-9 Risk Management Strategy, PM-10 Security Authorization Process, PM-11 Mission/Business Process Definition, PM-12 Insider Threat Program, PM-13 Information Security Workforce, PM-14 Testing, Training, and Monitoring, PM-15 Contacts with Security Groups and Associations, PM-16 Threat Awareness Program", benchmark_id=6)'
p100
sI388
S''
sI389
S"    '''"
p101
sI390
S''
sI391
S"    redirect(URL('default','grc_settings'))"
p102
sI392
S''
sI383
S'        db.control_catalog.update_or_insert((db.control_catalog.id==17), id=17, name="Integridad de Sistemas e Informaci\xc3\xb3n (System and Information Integrity)", description="SI-1 System and Information Integrity Policy and Procedures, SI-2 Flaw Remediation, SI-3Malicious Code Protection, SI-4 Information System Monitoring, SI-5 Security Alerts Advisories and Directives, SI-6 Security Function Verification, SI-7 Software, Firmware, and Information Integrity, SI-8 Spam Protection, SI-9 Withdrawn, SI-10 Information Input Validation, SI-11 Error Handling, SI-12 Information Handling and Retention, SI-13 Predictable Failure Prevention, SI-14 Non-Persistence, SI-15 Information Output Filtering, SI-16 Memory Protection, SI-17 Fail-Safe Procedures", benchmark_id=6)'
p103
ssg89
S'()'
p104
sg91
S'<module>'
p105
sa(dp106
g68
S'/home/grcbit/web2py/gluon/globals.py'
p107
sg70
(dp108
S'self'
p109
S'undefined'
p110
sS'f'
S'<function _load_demo_data>'
p111
ssg76
I421
sg77
(dp112
I416
S"        self.flash = ''            # used by the default view layout"
p113
sI417
S'        self.meta = Storage()      # used by web2py_ajax.html'
p114
sI418
S'        self.menu = []             # used by the default view layout'
p115
sI419
S'        self.files = []            # used by web2py_ajax.html'
p116
sI420
S'        self._vars = None'
p117
sI421
S'        self._caller = lambda f: f()'
p118
sI422
S'        self._view_environment = None'
p119
sI423
S'        self._custom_commit = None'
p120
sI424
S'        self._custom_rollback = None'
p121
sI425
S"        self.generic_patterns = ['*']"
p122
ssg89
S'(f=<function _load_demo_data>)'
p123
sg91
S'<lambda>'
p124
sa(dp125
g68
S'/home/grcbit/web2py/applications/grcdev/controllers/grc_demo_data.py'
p126
sg70
(dp127
S'create_date'
p128
g110
sS'name'
p129
g110
sS'datetime.datetime.now'
p130
S'<built-in method now of type object>'
p131
sS'risk_manager_approval'
p132
g110
sS'control_number'
p133
g110
sS'benchmark'
p134
g110
sS'builtinid'
p135
S'<built-in function id>'
p136
sS'db.bench_control_objective.id'
p137
S'<pydal.objects.Field object>'
p138
sS'db.bench_control_objective'
p139
S'<Table bench_control_objective (id, benchmark_id...er_approval, risk_analyst_log, risk_manager_log)>'
p140
sS'datetime.datetime'
p141
S"<type 'datetime.datetime'>"
p142
sS'global db'
p143
S'<DAL uri="sqlite://storage.sqlite">'
p144
sS'db.bench_control_objective.update_or_insert'
p145
S'<bound method Table.update_or_insert of <Table b...r_approval, risk_analyst_log, risk_manager_log)>>'
p146
sS'global datetime'
p147
S"<module 'datetime' (built-in)>"
p148
sS'description'
p149
g110
ssg76
I152
sg77
(dp150
I147
S'    db.benchmark.update_or_insert((db.benchmark.id==8), id=8, name="OWASP Application Security Verification Standard 3.0.1", description="ASVS has two main objectives: to assist organizations in the development and maintenance of secure applications to enable alignment between the needs and offerings of security services, security tool providers and consumers. The Application Security Verification Standard defines three levels of security verification, increasing in depth with each level. ASVS level 1 is aimed at all types of software. ASVS level 2 is for applications containing sensitive data, requiring protection. ASVS Level 3 is for the most critical applications - applications that perform high-value transactions, contain sensitive medical data, or any application that requires the highest level of trust.", risk_manager_approval=\'T\', create_date= datetime.datetime.now())'
p151
sI148
S'    db.benchmark.update_or_insert((db.benchmark.id==9), id=9, name="OWASP Application Security Verification Standard 4.0", description="The ASVS is a community-driven effort to establish a framework of security requirements and controls that focus on defining the functional and non-functional security controls required when designing, developing and testing modern web applications and web services.", risk_manager_approval=\'T\', create_date= datetime.datetime.now())'
p152
sI149
S'    #---------------------------------------------------------------------------------'
p153
sI150
S'    # BenchmarkObjectiveControl: OWASP Application Security Verification Standard 4.0'
p154
sI151
S'    #---------------------------------------------------------------------------------'
p155
sI152
S'    db.bench_control_objective.update_or_insert((db.bench_control_objective.id==1), id=1, risk_manager_approval=\'T\', create_date= datetime.datetime.now(), benchmark=9, control_number="V1", name="Architecture, Design and Threat Modeling Requirements", description="Security architecture has almost become a lost art in many organizations. The days of the enterprise architect have passed in the age of DevSecOps. The application security field must catch up and adopt agile security principles while re-introducing leading security architecture principles to software practitioners. Architecture is not an implementation, but a way of thinking about a problem that has potentially many different answers, and no one single correct answer. All too often, security is seen as inflexible and demanding that developers fix code in a particular way, when the developers may know a much better way to solve the problem. There is no single, simple solution for architecture, and to pretend otherwise is a disservice to the software engineering field.A specific implementation of a web application is likely to be revised continuously throughout its lifetime, but the overall architecture will likely rarely change but evolve slowly. Security architecture is identical -we need authentication today, we will require authentication tomorrow, and we will need it five years from now. If we make sound decisions today, we can save a lot of effort, time, and money if we select and re-use architecturally compliant solutions. For example, a decade ago, multifactor authentication was rarely implemented.If developers had invested in a single, secure identity provider model, such as SAML federated identity, the identity provider could be updated to incorporate new requirements such as NIST 800-63 compliance, while not changing the interfaces of the original application. If many applications shared the same security architecture and thus that same component, they all benefit from this upgrade at once. However, SAML will not always remain as the best or most suitable authentication solution -it might need to be swapped out for other solutions as requirements change. Changes like this are either complicated, so costly as to necessitate a complete re-write, or outright impossible without security architecture.In this chapter, the ASVS covers off the primary aspects of any sound security architecture: availability, confidentiality, processing integrity, non-repudiation, and privacy. Each of these security principles must be built in and be innate to all applications. It is critical to shift left, starting with developer enablement with secure coding checklists, mentoring and training, coding and testing, building, deployment, configuration, and operations, and finishing with follow up independent testing to assure that all of the security controls are present and functional. The last step used to be everything we did as an industry, but that is no longer sufficient when developers push code into production tens or hundreds of times a day. Application security professionals must keep up with agile techniques, which means adopting developer tools, learning to code, and working with developers rather than criticizing the project months after everyone else has moved on.")'
p156
sI153
S'    db.bench_control_objective.update_or_insert((db.bench_control_objective.id==2), id=2, risk_manager_approval=\'T\', create_date= datetime.datetime.now(), benchmark_id=9, control_number="V2", name="Input and Output Architectural Requirements", description="Authentication is the act of establishing, or confirming, someone (or something) as authentic and that claims made by a person or about a device are correct, resistant to impersonation, and prevent recovery or interception of passwords. When the ASVS was first released, username + password was the most common form of authentication outside of high security systems. Multi-factor authentication (MFA) was commonly accepted in security circles but rarely required elsewhere. As the number of password breaches increased, the idea that usernames are somehow confidential and passwords unknown, rendered many security controls untenable. For example, NIST 800-63 considers usernames and knowledge based authentication (KBA) as public information, SMS and email notifications as restricted authenticator types, and passwords as pre-breached. This reality renders knowledge based authenticators, SMS and email recovery, password history, complexity, and rotation controls useless. These controls always have been less than helpful, often forcing users to come up with weak passwords every few months, but with the release of over 5 billion username and password breaches, it\'s time to move on.Of all the sections in the ASVS, the authentication and session management chapters have changed the most. Adoption of effective, evidence-based leading practice will be challenging for many, and that\'s perfectly okay. We have to start the transition to a post-password future now.")'
p157
sI154
S'    db.bench_control_objective.update_or_insert((db.bench_control_objective.id==3), id=3, risk_manager_approval=\'T\', create_date= datetime.datetime.now(), benchmark_id=9, control_number="V3", name="Session Management Verification Requirements", description="One of the core components of any web-based application or stateful API is the mechanism by which it controls and maintains the state for a user or device interacting with it. Session management changes a stateless protocol to stateful, which is critical for differentiating different users or devices. Ensure that a verified application satisfies the following high-level session management requirements. Sessions are unique to each individual and cannot be guessed or shared. Sessions are invalidated when no longer required and timed out during periods of inactivity. As previously noted, these requirements have been adapted to be a compliant subset of selected NIST 800-63b controls, focused around common threats and commonly exploited authentication weaknesses. Previous verification requirements have been retired, de-duped, or in most cases adapted to be strongly aligned with the intent of mandatory NIST 800-63b requirements.")'
p158
sI155
S'    db.bench_control_objective.update_or_insert((db.bench_control_objective.id==4), id=4, risk_manager_approval=\'T\', create_date= datetime.datetime.now(), benchmark_id=9, control_number="V4", name="Access Control Verification Requirements", description="Authorization is the concept of allowing access to resources only to those permitted to use them. Ensure that a verified application satisfies the following high level requirements: Persons accessing resources hold valid credentials to do so. Users are associated with a well-defined set of roles and privileges. Role and permission metadata is protected from replay or tampering.")'
p159
sI156
S'    db.bench_control_objective.update_or_insert((db.bench_control_objective.id==5), id=5, risk_manager_approval=\'T\', create_date= datetime.datetime.now(), benchmark_id=9, control_number="V5", name="Validation, Sanitization and Encoding Verification Requirements", description="The most common web application security weakness is the failure to properly validate input coming from the client or the environment before directly using it without any output encoding. This weakness leads to almost all of the significant vulnerabilities in web applications, such as Cross-Site Scripting (XSS), SQL injection, interpreter injection, locale/Unicode attacks, file system attacks, and buffer overflows. Ensure that a verified application satisfies the following high-level requirements: - Input validation and output encoding architecture have an agreed pipeline to prevent injection attacks. - Input data is strongly typed, validated, range or length checked, or at worst, sanitized or filtered. - Output data is encoded or escaped as per the context of the data as close to the interpreter as possible. With modern web application architecture, output encoding is more important than ever. It is difficult to provide robust input validation in certain scenarios, so the use of safer API such as parameterized queries, auto-escaping templating frameworks, or carefully chosen output encoding is critical to the security of the application.")'
p160
ssg89
S'()'
p161
sg91
S'_load_demo_data'
p162
sa(dp163
g68
S'/home/grcbit/web2py/gluon/packages/dal/pydal/objects.py'
p164
sg70
(dp165
S'self.insert'
p166
S'<bound method Table.insert of <Table bench_contr...r_approval, risk_analyst_log, risk_manager_log)>>'
p167
sS'values'
p168
S"{'benchmark': 9, 'control_number': 'V1', 'create_date': datetime.datetime(2021, 9, 14, 20, 8, 34, 588655), 'description': 'Security architecture has almost become a lost a... project months after everyone else has moved on.', 'id': 1, 'name': 'Architecture, Design and Threat Modeling Requirements', 'risk_manager_approval': 'T'}"
p169
sS'self'
p170
S'<Table bench_control_objective (id, benchmark_id...er_approval, risk_analyst_log, risk_manager_log)>'
p171
sS'newid'
p172
g110
ssg76
I829
sg77
(dp173
I832
S'    def validate_and_update_or_insert(self, _key=DEFAULT, **fields):'
p174
sI833
S"        if _key is DEFAULT or _key == '':"
p175
sI824
S'            record = self(_key)'
p176
sI825
S'        if record:'
p177
sI826
S'            record.update_record(**values)'
p178
sI827
S'            newid = None'
p179
sI828
S'        else:'
p180
sI829
S'            newid = self.insert(**values)'
p181
sI830
S'        return newid'
p182
sI831
S''
ssg89
S'(self=<Table bench_control_objective (id, benchmark_id...er_approval, risk_analyst_log, risk_manager_log)>, _key=<Query ("bench_control_objective"."id" = 1)>, **values={\'benchmark\': 9, \'control_number\': \'V1\', \'create_date\': datetime.datetime(2021, 9, 14, 20, 8, 34, 588655), \'description\': \'Security architecture has almost become a lost a... project months after everyone else has moved on.\', \'id\': 1, \'name\': \'Architecture, Design and Threat Modeling Requirements\', \'risk_manager_approval\': \'T\'})'
p183
sg91
S'update_or_insert'
p184
sa(dp185
g68
S'/home/grcbit/web2py/gluon/packages/dal/pydal/objects.py'
p186
sg70
(dp187
S'self'
p188
S'<Table bench_control_objective (id, benchmark_id...er_approval, risk_analyst_log, risk_manager_log)>'
p189
sS'ret'
p190
g110
sS'row.op_values'
p191
S"<bound method OpRow.op_values of <OpRow {'create...ture, Design and Threat Modeling Requirements'}>>"
p192
sS'self._db._adapter'
p193
S'<pydal.adapters.sqlite.SQLite object>'
p194
sS'self._db._adapter.insert'
p195
S'<bound method SQLite.insert of <pydal.adapters.sqlite.SQLite object>>'
p196
sS'self._db'
p197
S'<DAL uri="sqlite://storage.sqlite">'
p198
sS'row'
p199
S"<OpRow {'create_date': datetime.datetime(2021, 9...cture, Design and Threat Modeling Requirements'}>"
p200
ssg76
I762
sg77
(dp201
I757
S''
sI758
S'    def insert(self, **fields):'
p202
sI759
S'        row = self._fields_and_values_for_insert(fields)'
p203
sI760
S'        if any(f(row) for f in self._before_insert):'
p204
sI761
S'            return 0'
p205
sI762
S'        ret = self._db._adapter.insert(self, row.op_values())'
p206
sI763
S'        if ret and self._after_insert:'
p207
sI764
S'            for f in self._after_insert:'
p208
sI765
S'                f(row, ret)'
p209
sI766
S'        return ret'
p210
ssg89
S"(self=<Table bench_control_objective (id, benchmark_id...er_approval, risk_analyst_log, risk_manager_log)>, **fields={'benchmark': 9, 'control_number': 'V1', 'create_date': datetime.datetime(2021, 9, 14, 20, 8, 34, 588655), 'description': 'Security architecture has almost become a lost a... project months after everyone else has moved on.', 'id': 1, 'name': 'Architecture, Design and Threat Modeling Requirements', 'risk_manager_approval': 'T'})"
p211
sg91
S'insert'
p212
sa(dp213
g68
S'/home/grcbit/web2py/gluon/packages/dal/pydal/adapters/base.py'
p214
sg70
(dp215
S'e'
S"IntegrityError('NOT NULL constraint failed: bench_control_objective.benchmark_id',)"
p216
ssg76
I487
sg77
(dp217
I482
S'            self.execute(query)'
p218
sI483
S'        except:'
p219
sI484
S'            e = sys.exc_info()[1]'
p220
sI485
S"            if hasattr(table, '_on_insert_error'):"
p221
sI486
S'                return table._on_insert_error(table, fields, e)'
p222
sI487
S'            raise e'
p223
sI488
S"        if hasattr(table, '_primarykey'):"
p224
sI489
S'            pkdict = dict(['
p225
sI490
S'                (k[0].name, k[1]) for k in fields'
p226
sI491
S'                if k[0].name in table._primarykey])'
p227
ssg89
S"(self=<pydal.adapters.sqlite.SQLite object>, table=<Table bench_control_objective (id, benchmark_id...er_approval, risk_analyst_log, risk_manager_log)>, fields=[(<pydal.objects.Field object>, datetime.datetime(2021, 9, 14, 20, 8, 34, 588655)), (<pydal.objects.Field object>, 'Security architecture has almost become a lost a... project months after everyone else has moved on.'), (<pydal.objects.Field object>, 'V1'), (<pydal.objects.Field object>, 'T'), (<pydal.objects.Field object>, 'F'), (<pydal.objects.Field object>, 1), (<pydal.objects.Field object>, 'Architecture, Design and Threat Modeling Requirements')])"
p228
sg91
g212
sasS'pyver'
p229
S'Python 2.7.12: /usr/local/bin/uwsgi (prefix: /usr)'
p230
sS'session'
p231
g63
(S's\xe2\x08\x00\x00<div><table><tr><td style="font-weight:bold;vertical-align:top;">auth</td><td style="vertical-align:top;">:</td><td><div><table><tr><td style="font-weight:bold;vertical-align:top;">expiration</td><td style="vertical-align:top;">:</td><td><div>3600</div></td></tr><tr><td style="font-weight:bold;vertical-align:top;">hmac_key</td><td style="vertical-align:top;">:</td><td><div>b0ee6f05-c16f-423d-b81a-017c93c46ce5</div></td></tr><tr><td style="font-weight:bold;vertical-align:top;">last_visit</td><td style="vertical-align:top;">:</td><td><div>datetime.datetime(2021, 9, 14, 20, 7, 12, 9536)</div></td></tr><tr><td style="font-weight:bold;vertical-align:top;">remember_me</td><td style="vertical-align:top;">:</td><td><div>False</div></td></tr><tr><td style="font-weight:bold;vertical-align:top;">user</td><td style="vertical-align:top;">:</td><td><div><table><tr><td style="font-weight:bold;vertical-align:top;">email</td><td style="vertical-align:top;">:</td><td><div>admin@email.com</div></td></tr><tr><td style="font-weight:bold;vertical-align:top;">first_name</td><td style="vertical-align:top;">:</td><td><div>admin</div></td></tr><tr><td style="font-weight:bold;vertical-align:top;">id</td><td style="vertical-align:top;">:</td><td><div>1L</div></td></tr><tr><td style="font-weight:bold;vertical-align:top;">last_name</td><td style="vertical-align:top;">:</td><td><div>admin</div></td></tr><tr><td style="font-weight:bold;vertical-align:top;">registration_id</td><td style="vertical-align:top;">:</td><td><div></div></td></tr><tr><td style="font-weight:bold;vertical-align:top;">registration_key</td><td style="vertical-align:top;">:</td><td><div></div></td></tr><tr><td style="font-weight:bold;vertical-align:top;">reset_password_key</td><td style="vertical-align:top;">:</td><td><div></div></td></tr></table></div></td></tr><tr><td style="font-weight:bold;vertical-align:top;">user_groups</td><td style="vertical-align:top;">:</td><td><div><table><tr><td style="font-weight:bold;vertical-align:top;">1</td><td style="vertical-align:top;">:</td><td><div>admin</div></td></tr></table></div></td></tr></table></div></td></tr><tr><td style="font-weight:bold;vertical-align:top;">flash</td><td style="vertical-align:top;">:</td><td><div>None</div></td></tr></table></div>'
tRp232
sS'etype'
p233
S"<class 'sqlite3.IntegrityError'>"
p234
sS'date'
p235
S'Tue Sep 14 20:08:34 2021'
p236
sS'response'
p237
g63
(S's`,\x00\x00<div><table><tr><td style="font-weight:bold;vertical-align:top;">body</td><td style="vertical-align:top;">:</td><td><div>&lt;cStringIO.StringO object at 0x7faec0babc38&gt;</div></td></tr><tr><td style="font-weight:bold;vertical-align:top;">cookies</td><td style="vertical-align:top;">:</td><td><div><table><tr><td style="font-weight:bold;vertical-align:top;">session_id_grcdev</td><td style="vertical-align:top;">:</td><td><div>148.244.169.125-e2df492b-c267-412c-b012-76c071a1481f<table><tr><td style="font-weight:bold;vertical-align:top;">comment</td><td style="vertical-align:top;">:</td><td><div></div></td></tr><tr><td style="font-weight:bold;vertical-align:top;">domain</td><td style="vertical-align:top;">:</td><td><div></div></td></tr><tr><td style="font-weight:bold;vertical-align:top;">expires</td><td style="vertical-align:top;">:</td><td><div></div></td></tr><tr><td style="font-weight:bold;vertical-align:top;">httponly</td><td style="vertical-align:top;">:</td><td><div></div></td></tr><tr><td style="font-weight:bold;vertical-align:top;">max-age</td><td style="vertical-align:top;">:</td><td><div></div></td></tr><tr><td style="font-weight:bold;vertical-align:top;">path</td><td style="vertical-align:top;">:</td><td><div>/</div></td></tr><tr><td style="font-weight:bold;vertical-align:top;">samesite</td><td style="vertical-align:top;">:</td><td><div></div></td></tr><tr><td style="font-weight:bold;vertical-align:top;">secure</td><td style="vertical-align:top;">:</td><td><div></div></td></tr><tr><td style="font-weight:bold;vertical-align:top;">version</td><td style="vertical-align:top;">:</td><td><div></div></td></tr></table></div></td></tr></table></div></td></tr><tr><td style="font-weight:bold;vertical-align:top;">delimiters</td><td style="vertical-align:top;">:</td><td><div><table><tr><td><div>{{</div></td></tr><tr><td><div>}}</div></td></tr></table></div></td></tr><tr><td style="font-weight:bold;vertical-align:top;">files</td><td style="vertical-align:top;">:</td><td><div><table></table></div></td></tr><tr><td style="font-weight:bold;vertical-align:top;">flash</td><td style="vertical-align:top;">:</td><td><div></div></td></tr><tr><td style="font-weight:bold;vertical-align:top;">form_label_separator</td><td style="vertical-align:top;">:</td><td><div></div></td></tr><tr><td style="font-weight:bold;vertical-align:top;">formstyle</td><td style="vertical-align:top;">:</td><td><div>bootstrap4_inline</div></td></tr><tr><td style="font-weight:bold;vertical-align:top;">generic_patterns</td><td style="vertical-align:top;">:</td><td><div><table></table></div></td></tr><tr><td style="font-weight:bold;vertical-align:top;">google_analytics_id</td><td style="vertical-align:top;">:</td><td><div>None</div></td></tr><tr><td style="font-weight:bold;vertical-align:top;">headers</td><td style="vertical-align:top;">:</td><td><div><table><tr><td style="font-weight:bold;vertical-align:top;">X-Powered-By</td><td style="vertical-align:top;">:</td><td><div>web2py</div></td></tr></table></div></td></tr><tr><td style="font-weight:bold;vertical-align:top;">menu</td><td style="vertical-align:top;">:</td><td><div><table><tr><td><div><table><tr><td><div>Inicio</div></td></tr><tr><td><div>False</div></td></tr><tr><td><div>/grcdev/default/index</div></td></tr><tr><td><div><table></table></div></td></tr></table></div></td></tr><tr><td><div><table><tr><td><div>Risk Catalog</div></td></tr><tr><td><div>False</div></td></tr><tr><td><div>#</div></td></tr><tr><td><div><table><tr><td><div><table><tr><td><div>Risk Classification</div></td></tr><tr><td><div>False</div></td></tr><tr><td><div>/grcdev/default/risk_classification</div></td></tr></table></div></td></tr><tr><td><div><table><tr><td><div>Risk Treatment</div></td></tr><tr><td><div>False</div></td></tr><tr><td><div>/grcdev/default/risk_treatment</div></td></tr></table></div></td></tr><tr><td><div><table><tr><td><div>Impact Level</div></td></tr><tr><td><div>False</div></td></tr><tr><td><div>/grcdev/default/impact_level</div></td></tr></table></div></td></tr><tr><td><div><table><tr><td><div>Probability Level</div></td></tr><tr><td><div>False</div></td></tr><tr><td><div>/grcdev/default/probability_level</div></td></tr></table></div></td></tr></table></div></td></tr></table></div></td></tr><tr><td><div><table><tr><td><div>Organization Context</div></td></tr><tr><td><div>False</div></td></tr><tr><td><div>#</div></td></tr><tr><td><div><table><tr><td><div><table><tr><td><div>Department</div></td></tr><tr><td><div>False</div></td></tr><tr><td><div>/grcdev/default/department</div></td></tr></table></div></td></tr><tr><td><div><table><tr><td><div>Objective Type</div></td></tr><tr><td><div>False</div></td></tr><tr><td><div>/grcdev/default/objective_type</div></td></tr></table></div></td></tr><tr><td><div><table><tr><td><div>Company</div></td></tr><tr><td><div>False</div></td></tr><tr><td><div>/grcdev/default/company</div></td></tr></table></div></td></tr><tr><td><div><table><tr><td><div>Company Objetive</div></td></tr><tr><td><div>False</div></td></tr><tr><td><div>/grcdev/default/company_objective</div></td></tr></table></div></td></tr></table></div></td></tr></table></div></td></tr><tr><td><div><table><tr><td><div>Asset</div></td></tr><tr><td><div>False</div></td></tr><tr><td><div>#</div></td></tr><tr><td><div><table><tr><td><div><table><tr><td><div>Process Type</div></td></tr><tr><td><div>False</div></td></tr><tr><td><div>/grcdev/default/process_type</div></td></tr></table></div></td></tr><tr><td><div><table><tr><td><div>System Type</div></td></tr><tr><td><div>False</div></td></tr><tr><td><div>/grcdev/default/system_type</div></td></tr></table></div></td></tr><tr><td><div><table><tr><td><div>Process</div></td></tr><tr><td><div>False</div></td></tr><tr><td><div>/grcdev/default/process</div></td></tr></table></div></td></tr></table></div></td></tr></table></div></td></tr><tr><td><div><table><tr><td><div>Audit &amp; Control</div></td></tr><tr><td><div>False</div></td></tr><tr><td><div>#</div></td></tr><tr><td><div><table><tr><td><div><table><tr><td><div>Maturity Level</div></td></tr><tr><td><div>False</div></td></tr><tr><td><div>/grcdev/default/maturity_level</div></td></tr></table></div></td></tr><tr><td><div><table><tr><td><div>Benchmark</div></td></tr><tr><td><div>False</div></td></tr><tr><td><div>/grcdev/default/benchmark</div></td></tr></table></div></td></tr><tr><td><div><table><tr><td><div>Benchmark Control Objective</div></td></tr><tr><td><div>False</div></td></tr><tr><td><div>/grcdev/default/bench_control_objective</div></td></tr></table></div></td></tr></table></div></td></tr></table></div></td></tr><tr><td><div><table><tr><td><div>Project</div></td></tr><tr><td><div>False</div></td></tr><tr><td><div>#</div></td></tr><tr><td><div><table></table></div></td></tr></table></div></td></tr><tr><td><div><table><tr><td><div>Tool</div></td></tr><tr><td><div>False</div></td></tr><tr><td><div>#</div></td></tr><tr><td><div><table></table></div></td></tr></table></div></td></tr><tr><td><div><table><tr><td><div>Admin</div></td></tr><tr><td><div>False</div></td></tr><tr><td><div>#</div></td></tr><tr><td><div><table><tr><td><div><table><tr><td><div>Settings</div></td></tr><tr><td><div>False</div></td></tr><tr><td><div>/grcdev/default/grc_settings</div></td></tr></table></div></td></tr></table></div></td></tr></table></div></td></tr></table></div></td></tr><tr><td style="font-weight:bold;vertical-align:top;">meta</td><td style="vertical-align:top;">:</td><td><div><table><tr><td style="font-weight:bold;vertical-align:top;">author</td><td style="vertical-align:top;">:</td><td><div>Your Name &lt;you@example.com&gt;</div></td></tr><tr><td style="font-weight:bold;vertical-align:top;">description</td><td style="vertical-align:top;">:</td><td><div>a cool new app</div></td></tr><tr><td style="font-weight:bold;vertical-align:top;">generator</td><td style="vertical-align:top;">:</td><td><div>Web2py Web Framework</div></td></tr><tr><td style="font-weight:bold;vertical-align:top;">keywords</td><td style="vertical-align:top;">:</td><td><div><table><tr><td><div>web2py</div></td></tr><tr><td><div>python</div></td></tr><tr><td><div>framework</div></td></tr></table></div></td></tr></table></div></td></tr><tr><td style="font-weight:bold;vertical-align:top;">models_to_run</td><td style="vertical-align:top;">:</td><td><div><table><tr><td><div>^\\w+\\.py$</div></td></tr><tr><td><div>^grc_demo_data/\\w+\\.py$</div></td></tr><tr><td><div>^grc_demo_data/_load_demo_data/\\w+\\.py$</div></td></tr></table></div></td></tr><tr><td style="font-weight:bold;vertical-align:top;">postprocessing</td><td style="vertical-align:top;">:</td><td><div><table></table></div></td></tr><tr><td style="font-weight:bold;vertical-align:top;">session_client</td><td style="vertical-align:top;">:</td><td><div>148.244.169.125</div></td></tr><tr><td style="font-weight:bold;vertical-align:top;">session_cookie_compression_level</td><td style="vertical-align:top;">:</td><td><div>None</div></td></tr><tr><td style="font-weight:bold;vertical-align:top;">session_cookie_expires</td><td style="vertical-align:top;">:</td><td><div>None</div></td></tr><tr><td style="font-weight:bold;vertical-align:top;">session_data_name</td><td style="vertical-align:top;">:</td><td><div>session_data_grcdev</div></td></tr><tr><td style="font-weight:bold;vertical-align:top;">session_file</td><td style="vertical-align:top;">:</td><td><div>&lt;open file &#x27;/home/grcbit/web2py/applications/grcdev/sessions/080/0c6/148.244.169.125-e2df492b-c267-412c-b012-76c071a1481f&#x27;, mode &#x27;rb+&#x27; at 0x7faec167c6f0&gt;</div></td></tr><tr><td style="font-weight:bold;vertical-align:top;">session_filename</td><td style="vertical-align:top;">:</td><td><div>/home/grcbit/web2py/applications/grcdev/sessions/148.244.169.125-e2df492b-c267-412c-b012-76c071a1481f</div></td></tr><tr><td style="font-weight:bold;vertical-align:top;">session_hash</td><td style="vertical-align:top;">:</td><td><div>5cc8f662c60e1f119aef32f75593f818</div></td></tr><tr><td style="font-weight:bold;vertical-align:top;">session_id</td><td style="vertical-align:top;">:</td><td><div>148.244.169.125-e2df492b-c267-412c-b012-76c071a1481f</div></td></tr><tr><td style="font-weight:bold;vertical-align:top;">session_id_name</td><td style="vertical-align:top;">:</td><td><div>session_id_grcdev</div></td></tr><tr><td style="font-weight:bold;vertical-align:top;">session_locked</td><td style="vertical-align:top;">:</td><td><div>True</div></td></tr><tr><td style="font-weight:bold;vertical-align:top;">session_masterapp</td><td style="vertical-align:top;">:</td><td><div>grcdev</div></td></tr><tr><td style="font-weight:bold;vertical-align:top;">session_new</td><td style="vertical-align:top;">:</td><td><div>False</div></td></tr><tr><td style="font-weight:bold;vertical-align:top;">session_storage_type</td><td style="vertical-align:top;">:</td><td><div>file</div></td></tr><tr><td style="font-weight:bold;vertical-align:top;">show_toolbar</td><td style="vertical-align:top;">:</td><td><div>False</div></td></tr><tr><td style="font-weight:bold;vertical-align:top;">status</td><td style="vertical-align:top;">:</td><td><div>200</div></td></tr><tr><td style="font-weight:bold;vertical-align:top;">view</td><td style="vertical-align:top;">:</td><td><div>grc_demo_data/_load_demo_data.html</div></td></tr></table></div>'
tRp238
sS'locals'
p239
(dp240
S'query'
p241
S'\'INSERT INTO "bench_control_objective"("create_da...cture, Design and Threat Modeling Requirements\\\');\''
p242
sS'self'
p243
S'<pydal.adapters.sqlite.SQLite object>'
p244
sS'e'
S"IntegrityError('NOT NULL constraint failed: bench_control_objective.benchmark_id',)"
p245
sS'fields'
p246
S"[(<pydal.objects.Field object>, datetime.datetime(2021, 9, 14, 20, 8, 34, 588655)), (<pydal.objects.Field object>, 'Security architecture has almost become a lost a... project months after everyone else has moved on.'), (<pydal.objects.Field object>, 'V1'), (<pydal.objects.Field object>, 'T'), (<pydal.objects.Field object>, 'F'), (<pydal.objects.Field object>, 1), (<pydal.objects.Field object>, 'Architecture, Design and Threat Modeling Requirements')]"
p247
sS'table'
p248
S'<Table bench_control_objective (id, benchmark_id...er_approval, risk_analyst_log, risk_manager_log)>'
p249
sssS'traceback'
p250
S'Traceback (most recent call last):\n  File "/home/grcbit/web2py/gluon/restricted.py", line 219, in restricted\n    exec(ccode, environment)\n  File "/home/grcbit/web2py/applications/grcdev/controllers/grc_demo_data.py", line 394, in <module>\n  File "/home/grcbit/web2py/gluon/globals.py", line 421, in <lambda>\n    self._caller = lambda f: f()\n  File "/home/grcbit/web2py/applications/grcdev/controllers/grc_demo_data.py", line 152, in _load_demo_data\n    db.bench_control_objective.update_or_insert((db.bench_control_objective.id==1), id=1, risk_manager_approval=\'T\', create_date= datetime.datetime.now(), benchmark=9, control_number="V1", name="Architecture, Design and Threat Modeling Requirements", description="Security architecture has almost become a lost art in many organizations. The days of the enterprise architect have passed in the age of DevSecOps. The application security field must catch up and adopt agile security principles while re-introducing leading security architecture principles to software practitioners. Architecture is not an implementation, but a way of thinking about a problem that has potentially many different answers, and no one single correct answer. All too often, security is seen as inflexible and demanding that developers fix code in a particular way, when the developers may know a much better way to solve the problem. There is no single, simple solution for architecture, and to pretend otherwise is a disservice to the software engineering field.A specific implementation of a web application is likely to be revised continuously throughout its lifetime, but the overall architecture will likely rarely change but evolve slowly. Security architecture is identical -we need authentication today, we will require authentication tomorrow, and we will need it five years from now. If we make sound decisions today, we can save a lot of effort, time, and money if we select and re-use architecturally compliant solutions. For example, a decade ago, multifactor authentication was rarely implemented.If developers had invested in a single, secure identity provider model, such as SAML federated identity, the identity provider could be updated to incorporate new requirements such as NIST 800-63 compliance, while not changing the interfaces of the original application. If many applications shared the same security architecture and thus that same component, they all benefit from this upgrade at once. However, SAML will not always remain as the best or most suitable authentication solution -it might need to be swapped out for other solutions as requirements change. Changes like this are either complicated, so costly as to necessitate a complete re-write, or outright impossible without security architecture.In this chapter, the ASVS covers off the primary aspects of any sound security architecture: availability, confidentiality, processing integrity, non-repudiation, and privacy. Each of these security principles must be built in and be innate to all applications. It is critical to shift left, starting with developer enablement with secure coding checklists, mentoring and training, coding and testing, building, deployment, configuration, and operations, and finishing with follow up independent testing to assure that all of the security controls are present and functional. The last step used to be everything we did as an industry, but that is no longer sufficient when developers push code into production tens or hundreds of times a day. Application security professionals must keep up with agile techniques, which means adopting developer tools, learning to code, and working with developers rather than criticizing the project months after everyone else has moved on.")\n  File "/home/grcbit/web2py/gluon/packages/dal/pydal/objects.py", line 829, in update_or_insert\n    newid = self.insert(**values)\n  File "/home/grcbit/web2py/gluon/packages/dal/pydal/objects.py", line 762, in insert\n    ret = self._db._adapter.insert(self, row.op_values())\n  File "/home/grcbit/web2py/gluon/packages/dal/pydal/adapters/base.py", line 487, in insert\n    raise e\nIntegrityError: NOT NULL constraint failed: bench_control_objective.benchmark_id\n'
p251
s.