(dp1
S'output'
p2
S"<class 'sqlite3.OperationalError'> Cannot add a UNIQUE column"
p3
sS'layer'
p4
S'/home/grcbit/web2py/applications/grcdev/models/db.py'
p5
sS'code'
p6
S'<code object <module> at 0x7faec81b77b0, file "/home/grcbit/web2py/applications/grcdev/models/db.py", line 2>'
p7
sS'snapshot'
p8
(dp9
S'exception'
p10
(dp11
S'__module__'
p12
S"'sqlite3'"
p13
sS'__getslice__'
p14
S"<method-wrapper '__getslice__' of OperationalError object>"
p15
sS'__str__'
p16
S"<method-wrapper '__str__' of OperationalError object>"
p17
sS'__reduce__'
p18
S'<built-in method __reduce__ of OperationalError object>'
p19
sS'__dict__'
p20
S'{}'
p21
sS'__sizeof__'
p22
S'<built-in method __sizeof__ of OperationalError object>'
p23
sS'__weakref__'
p24
S'None'
p25
sS'message'
p26
S"'Cannot add a UNIQUE column'"
p27
sS'__init__'
p28
S"<method-wrapper '__init__' of OperationalError object>"
p29
sS'__setattr__'
p30
S"<method-wrapper '__setattr__' of OperationalError object>"
p31
sS'__reduce_ex__'
p32
S'<built-in method __reduce_ex__ of OperationalError object>'
p33
sS'__new__'
p34
S'<built-in method __new__ of type object>'
p35
sS'__format__'
p36
S'<built-in method __format__ of OperationalError object>'
p37
sS'__class__'
p38
S"<class 'sqlite3.OperationalError'>"
p39
sS'__doc__'
p40
S'None'
p41
sS'__getitem__'
p42
S"<method-wrapper '__getitem__' of OperationalError object>"
p43
sS'__setstate__'
p44
S'<built-in method __setstate__ of OperationalError object>'
p45
sS'__getattribute__'
p46
S"<method-wrapper '__getattribute__' of OperationalError object>"
p47
sS'args'
p48
S"('Cannot add a UNIQUE column',)"
p49
sS'__subclasshook__'
p50
S'<built-in method __subclasshook__ of type object>'
p51
sS'__unicode__'
p52
S'<built-in method __unicode__ of OperationalError object>'
p53
sS'__delattr__'
p54
S"<method-wrapper '__delattr__' of OperationalError object>"
p55
sS'__repr__'
p56
S"<method-wrapper '__repr__' of OperationalError object>"
p57
sS'__hash__'
p58
S"<method-wrapper '__hash__' of OperationalError object>"
p59
ssS'evalue'
p60
S'Cannot add a UNIQUE column'
p61
sS'request'
p62
cgluon.html
XML_unpickle
p63
(S's\x15e\x00\x00<div><table><tr><td style="font-weight:bold;vertical-align:top;">ajax</td><td style="vertical-align:top;">:</td><td><div>False</div></td></tr><tr><td style="font-weight:bold;vertical-align:top;">application</td><td style="vertical-align:top;">:</td><td><div>grcdev</div></td></tr><tr><td style="font-weight:bold;vertical-align:top;">args</td><td style="vertical-align:top;">:</td><td><div><table></table></div></td></tr><tr><td style="font-weight:bold;vertical-align:top;">cid</td><td style="vertical-align:top;">:</td><td><div>None</div></td></tr><tr><td style="font-weight:bold;vertical-align:top;">client</td><td style="vertical-align:top;">:</td><td><div>148.244.169.125</div></td></tr><tr><td style="font-weight:bold;vertical-align:top;">controller</td><td style="vertical-align:top;">:</td><td><div>default</div></td></tr><tr><td style="font-weight:bold;vertical-align:top;">cookies</td><td style="vertical-align:top;">:</td><td><div><table><tr><td style="font-weight:bold;vertical-align:top;">session_id_admin</td><td style="vertical-align:top;">:</td><td><div>148.244.169.125-7c381d06-3e9b-46ef-8e7e-285002d0c29a<table><tr><td style="font-weight:bold;vertical-align:top;">comment</td><td style="vertical-align:top;">:</td><td><div></div></td></tr><tr><td style="font-weight:bold;vertical-align:top;">domain</td><td style="vertical-align:top;">:</td><td><div></div></td></tr><tr><td style="font-weight:bold;vertical-align:top;">expires</td><td style="vertical-align:top;">:</td><td><div></div></td></tr><tr><td style="font-weight:bold;vertical-align:top;">httponly</td><td style="vertical-align:top;">:</td><td><div></div></td></tr><tr><td style="font-weight:bold;vertical-align:top;">max-age</td><td style="vertical-align:top;">:</td><td><div></div></td></tr><tr><td style="font-weight:bold;vertical-align:top;">path</td><td style="vertical-align:top;">:</td><td><div></div></td></tr><tr><td style="font-weight:bold;vertical-align:top;">secure</td><td style="vertical-align:top;">:</td><td><div></div></td></tr><tr><td style="font-weight:bold;vertical-align:top;">version</td><td style="vertical-align:top;">:</td><td><div></div></td></tr></table></div></td></tr><tr><td style="font-weight:bold;vertical-align:top;">session_id_grcd</td><td style="vertical-align:top;">:</td><td><div>148.244.169.125-3405f843-8340-4a06-a6e1-433c14a23f37<table><tr><td style="font-weight:bold;vertical-align:top;">comment</td><td style="vertical-align:top;">:</td><td><div></div></td></tr><tr><td style="font-weight:bold;vertical-align:top;">domain</td><td style="vertical-align:top;">:</td><td><div></div></td></tr><tr><td style="font-weight:bold;vertical-align:top;">expires</td><td style="vertical-align:top;">:</td><td><div></div></td></tr><tr><td style="font-weight:bold;vertical-align:top;">httponly</td><td style="vertical-align:top;">:</td><td><div></div></td></tr><tr><td style="font-weight:bold;vertical-align:top;">max-age</td><td style="vertical-align:top;">:</td><td><div></div></td></tr><tr><td style="font-weight:bold;vertical-align:top;">path</td><td style="vertical-align:top;">:</td><td><div></div></td></tr><tr><td style="font-weight:bold;vertical-align:top;">secure</td><td style="vertical-align:top;">:</td><td><div></div></td></tr><tr><td style="font-weight:bold;vertical-align:top;">version</td><td style="vertical-align:top;">:</td><td><div></div></td></tr></table></div></td></tr><tr><td style="font-weight:bold;vertical-align:top;">session_id_grcdemo</td><td style="vertical-align:top;">:</td><td><div>148.244.169.125-f57695bc-74e7-43c5-b9ca-a4fc606da5b0<table><tr><td style="font-weight:bold;vertical-align:top;">comment</td><td style="vertical-align:top;">:</td><td><div></div></td></tr><tr><td style="font-weight:bold;vertical-align:top;">domain</td><td style="vertical-align:top;">:</td><td><div></div></td></tr><tr><td style="font-weight:bold;vertical-align:top;">expires</td><td style="vertical-align:top;">:</td><td><div></div></td></tr><tr><td style="font-weight:bold;vertical-align:top;">httponly</td><td style="vertical-align:top;">:</td><td><div></div></td></tr><tr><td style="font-weight:bold;vertical-align:top;">max-age</td><td style="vertical-align:top;">:</td><td><div></div></td></tr><tr><td style="font-weight:bold;vertical-align:top;">path</td><td style="vertical-align:top;">:</td><td><div></div></td></tr><tr><td style="font-weight:bold;vertical-align:top;">secure</td><td style="vertical-align:top;">:</td><td><div></div></td></tr><tr><td style="font-weight:bold;vertical-align:top;">version</td><td style="vertical-align:top;">:</td><td><div></div></td></tr></table></div></td></tr><tr><td style="font-weight:bold;vertical-align:top;">session_id_grcdev</td><td style="vertical-align:top;">:</td><td><div>148.244.169.125-f2e36075-b0b8-42e7-9ebf-b44b13dfd0fa<table><tr><td style="font-weight:bold;vertical-align:top;">comment</td><td style="vertical-align:top;">:</td><td><div></div></td></tr><tr><td style="font-weight:bold;vertical-align:top;">domain</td><td style="vertical-align:top;">:</td><td><div></div></td></tr><tr><td style="font-weight:bold;vertical-align:top;">expires</td><td style="vertical-align:top;">:</td><td><div></div></td></tr><tr><td style="font-weight:bold;vertical-align:top;">httponly</td><td style="vertical-align:top;">:</td><td><div></div></td></tr><tr><td style="font-weight:bold;vertical-align:top;">max-age</td><td style="vertical-align:top;">:</td><td><div></div></td></tr><tr><td style="font-weight:bold;vertical-align:top;">path</td><td style="vertical-align:top;">:</td><td><div></div></td></tr><tr><td style="font-weight:bold;vertical-align:top;">secure</td><td style="vertical-align:top;">:</td><td><div></div></td></tr><tr><td style="font-weight:bold;vertical-align:top;">version</td><td style="vertical-align:top;">:</td><td><div></div></td></tr></table></div></td></tr></table></div></td></tr><tr><td style="font-weight:bold;vertical-align:top;">env</td><td style="vertical-align:top;">:</td><td><div><table><tr><td style="font-weight:bold;vertical-align:top;">CONTENT_LENGTH</td><td style="vertical-align:top;">:</td><td><div></div></td></tr><tr><td style="font-weight:bold;vertical-align:top;">CONTENT_TYPE</td><td style="vertical-align:top;">:</td><td><div></div></td></tr><tr><td style="font-weight:bold;vertical-align:top;">DOCUMENT_ROOT</td><td style="vertical-align:top;">:</td><td><div>/usr/local/openresty/nginx/html</div></td></tr><tr><td style="font-weight:bold;vertical-align:top;">HTTPS</td><td style="vertical-align:top;">:</td><td><div>on</div></td></tr><tr><td style="font-weight:bold;vertical-align:top;">HTTP_ACCEPT</td><td style="vertical-align:top;">:</td><td><div>text/html,application/xhtml+xml,application/xml;q=0.9,image/avif,image/webp,image/apng,*/*;q=0.8,application/signed-exchange;v=b3;q=0.9</div></td></tr><tr><td style="font-weight:bold;vertical-align:top;">HTTP_ACCEPT_ENCODING</td><td style="vertical-align:top;">:</td><td><div>gzip, deflate, br</div></td></tr><tr><td style="font-weight:bold;vertical-align:top;">HTTP_ACCEPT_LANGUAGE</td><td style="vertical-align:top;">:</td><td><div>es-419,es;q=0.9</div></td></tr><tr><td style="font-weight:bold;vertical-align:top;">HTTP_CACHE_CONTROL</td><td style="vertical-align:top;">:</td><td><div>max-age=0</div></td></tr><tr><td style="font-weight:bold;vertical-align:top;">HTTP_CONNECTION</td><td style="vertical-align:top;">:</td><td><div>close</div></td></tr><tr><td style="font-weight:bold;vertical-align:top;">HTTP_COOKIE</td><td style="vertical-align:top;">:</td><td><div>session_id_grcdemo=148.244.169.125-f57695bc-74e7-43c5-b9ca-a4fc606da5b0; session_id_admin=148.244.169.125-7c381d06-3e9b-46ef-8e7e-285002d0c29a; session_id_grcd=148.244.169.125-3405f843-8340-4a06-a6e1-433c14a23f37; session_id_grcdev=148.244.169.125-f2e36075-b0b8-42e7-9ebf-b44b13dfd0fa</div></td></tr><tr><td style="font-weight:bold;vertical-align:top;">HTTP_HOST</td><td style="vertical-align:top;">:</td><td><div>w2p-grcbit.pythonanywhere.com</div></td></tr><tr><td style="font-weight:bold;vertical-align:top;">HTTP_REFERER</td><td style="vertical-align:top;">:</td><td><div>https://w2p-grcbit.pythonanywhere.com/grcdev/default/company_objective</div></td></tr><tr><td style="font-weight:bold;vertical-align:top;">HTTP_SEC_CH_UA</td><td style="vertical-align:top;">:</td><td><div>&quot;Chromium&quot;;v=&quot;92&quot;, &quot; Not A;Brand&quot;;v=&quot;99&quot;, &quot;Google Chrome&quot;;v=&quot;92&quot;</div></td></tr><tr><td style="font-weight:bold;vertical-align:top;">HTTP_SEC_CH_UA_MOBILE</td><td style="vertical-align:top;">:</td><td><div>?0</div></td></tr><tr><td style="font-weight:bold;vertical-align:top;">HTTP_SEC_FETCH_DEST</td><td style="vertical-align:top;">:</td><td><div>document</div></td></tr><tr><td style="font-weight:bold;vertical-align:top;">HTTP_SEC_FETCH_MODE</td><td style="vertical-align:top;">:</td><td><div>navigate</div></td></tr><tr><td style="font-weight:bold;vertical-align:top;">HTTP_SEC_FETCH_SITE</td><td style="vertical-align:top;">:</td><td><div>same-origin</div></td></tr><tr><td style="font-weight:bold;vertical-align:top;">HTTP_SEC_FETCH_USER</td><td style="vertical-align:top;">:</td><td><div>?1</div></td></tr><tr><td style="font-weight:bold;vertical-align:top;">HTTP_UPGRADE_INSECURE_REQUESTS</td><td style="vertical-align:top;">:</td><td><div>1</div></td></tr><tr><td style="font-weight:bold;vertical-align:top;">HTTP_USER_AGENT</td><td style="vertical-align:top;">:</td><td><div>Mozilla/5.0 (Windows NT 10.0; Win64; x64) AppleWebKit/537.36 (KHTML, like Gecko) Chrome/92.0.4515.159 Safari/537.36</div></td></tr><tr><td style="font-weight:bold;vertical-align:top;">HTTP_X_FORWARDED_FOR</td><td style="vertical-align:top;">:</td><td><div>148.244.169.125</div></td></tr><tr><td style="font-weight:bold;vertical-align:top;">HTTP_X_REAL_IP</td><td style="vertical-align:top;">:</td><td><div>148.244.169.125</div></td></tr><tr><td style="font-weight:bold;vertical-align:top;">PATH_INFO</td><td style="vertical-align:top;">:</td><td><div>/grcdev/default/process_type</div></td></tr><tr><td style="font-weight:bold;vertical-align:top;">QUERY_STRING</td><td style="vertical-align:top;">:</td><td><div></div></td></tr><tr><td style="font-weight:bold;vertical-align:top;">REMOTE_ADDR</td><td style="vertical-align:top;">:</td><td><div>10.0.0.224</div></td></tr><tr><td style="font-weight:bold;vertical-align:top;">REMOTE_PORT</td><td style="vertical-align:top;">:</td><td><div>56026</div></td></tr><tr><td style="font-weight:bold;vertical-align:top;">REQUEST_METHOD</td><td style="vertical-align:top;">:</td><td><div>GET</div></td></tr><tr><td style="font-weight:bold;vertical-align:top;">REQUEST_URI</td><td style="vertical-align:top;">:</td><td><div>/grcdev/default/process_type</div></td></tr><tr><td style="font-weight:bold;vertical-align:top;">SCRIPT_NAME</td><td style="vertical-align:top;">:</td><td><div></div></td></tr><tr><td style="font-weight:bold;vertical-align:top;">SERVER_NAME</td><td style="vertical-align:top;">:</td><td><div>w2p-grcbit.pythonanywhere.com</div></td></tr><tr><td style="font-weight:bold;vertical-align:top;">SERVER_PORT</td><td style="vertical-align:top;">:</td><td><div>443</div></td></tr><tr><td style="font-weight:bold;vertical-align:top;">SERVER_PROTOCOL</td><td style="vertical-align:top;">:</td><td><div>HTTP/1.1</div></td></tr><tr><td style="font-weight:bold;vertical-align:top;">app_folders</td><td style="vertical-align:top;">:</td><td><div>set([&#x27;/home/grcbit/web2py/applications/grcdev&#x27;])</div></td></tr><tr><td style="font-weight:bold;vertical-align:top;">applications_parent</td><td style="vertical-align:top;">:</td><td><div>/home/grcbit/web2py</div></td></tr><tr><td style="font-weight:bold;vertical-align:top;">content_length</td><td style="vertical-align:top;">:</td><td><div></div></td></tr><tr><td style="font-weight:bold;vertical-align:top;">content_type</td><td style="vertical-align:top;">:</td><td><div></div></td></tr><tr><td style="font-weight:bold;vertical-align:top;">db_sessions</td><td style="vertical-align:top;">:</td><td><div>set([])</div></td></tr><tr><td style="font-weight:bold;vertical-align:top;">debugging</td><td style="vertical-align:top;">:</td><td><div>False</div></td></tr><tr><td style="font-weight:bold;vertical-align:top;">document_root</td><td style="vertical-align:top;">:</td><td><div>/usr/local/openresty/nginx/html</div></td></tr><tr><td style="font-weight:bold;vertical-align:top;">gluon_parent</td><td style="vertical-align:top;">:</td><td><div>/home/grcbit/web2py</div></td></tr><tr><td style="font-weight:bold;vertical-align:top;">http_accept</td><td style="vertical-align:top;">:</td><td><div>text/html,application/xhtml+xml,application/xml;q=0.9,image/avif,image/webp,image/apng,*/*;q=0.8,application/signed-exchange;v=b3;q=0.9</div></td></tr><tr><td style="font-weight:bold;vertical-align:top;">http_accept_encoding</td><td style="vertical-align:top;">:</td><td><div>gzip, deflate, br</div></td></tr><tr><td style="font-weight:bold;vertical-align:top;">http_accept_language</td><td style="vertical-align:top;">:</td><td><div>es-419,es;q=0.9</div></td></tr><tr><td style="font-weight:bold;vertical-align:top;">http_cache_control</td><td style="vertical-align:top;">:</td><td><div>max-age=0</div></td></tr><tr><td style="font-weight:bold;vertical-align:top;">http_connection</td><td style="vertical-align:top;">:</td><td><div>close</div></td></tr><tr><td style="font-weight:bold;vertical-align:top;">http_cookie</td><td style="vertical-align:top;">:</td><td><div>session_id_grcdemo=148.244.169.125-f57695bc-74e7-43c5-b9ca-a4fc606da5b0; session_id_admin=148.244.169.125-7c381d06-3e9b-46ef-8e7e-285002d0c29a; session_id_grcd=148.244.169.125-3405f843-8340-4a06-a6e1-433c14a23f37; session_id_grcdev=148.244.169.125-f2e36075-b0b8-42e7-9ebf-b44b13dfd0fa</div></td></tr><tr><td style="font-weight:bold;vertical-align:top;">http_host</td><td style="vertical-align:top;">:</td><td><div>w2p-grcbit.pythonanywhere.com</div></td></tr><tr><td style="font-weight:bold;vertical-align:top;">http_referer</td><td style="vertical-align:top;">:</td><td><div>https://w2p-grcbit.pythonanywhere.com/grcdev/default/company_objective</div></td></tr><tr><td style="font-weight:bold;vertical-align:top;">http_sec_ch_ua</td><td style="vertical-align:top;">:</td><td><div>&quot;Chromium&quot;;v=&quot;92&quot;, &quot; Not A;Brand&quot;;v=&quot;99&quot;, &quot;Google Chrome&quot;;v=&quot;92&quot;</div></td></tr><tr><td style="font-weight:bold;vertical-align:top;">http_sec_ch_ua_mobile</td><td style="vertical-align:top;">:</td><td><div>?0</div></td></tr><tr><td style="font-weight:bold;vertical-align:top;">http_sec_fetch_dest</td><td style="vertical-align:top;">:</td><td><div>document</div></td></tr><tr><td style="font-weight:bold;vertical-align:top;">http_sec_fetch_mode</td><td style="vertical-align:top;">:</td><td><div>navigate</div></td></tr><tr><td style="font-weight:bold;vertical-align:top;">http_sec_fetch_site</td><td style="vertical-align:top;">:</td><td><div>same-origin</div></td></tr><tr><td style="font-weight:bold;vertical-align:top;">http_sec_fetch_user</td><td style="vertical-align:top;">:</td><td><div>?1</div></td></tr><tr><td style="font-weight:bold;vertical-align:top;">http_upgrade_insecure_requests</td><td style="vertical-align:top;">:</td><td><div>1</div></td></tr><tr><td style="font-weight:bold;vertical-align:top;">http_user_agent</td><td style="vertical-align:top;">:</td><td><div>Mozilla/5.0 (Windows NT 10.0; Win64; x64) AppleWebKit/537.36 (KHTML, like Gecko) Chrome/92.0.4515.159 Safari/537.36</div></td></tr><tr><td style="font-weight:bold;vertical-align:top;">http_x_forwarded_for</td><td style="vertical-align:top;">:</td><td><div>148.244.169.125</div></td></tr><tr><td style="font-weight:bold;vertical-align:top;">http_x_real_ip</td><td style="vertical-align:top;">:</td><td><div>148.244.169.125</div></td></tr><tr><td style="font-weight:bold;vertical-align:top;">https</td><td style="vertical-align:top;">:</td><td><div>on</div></td></tr><tr><td style="font-weight:bold;vertical-align:top;">is_jython</td><td style="vertical-align:top;">:</td><td><div>False</div></td></tr><tr><td style="font-weight:bold;vertical-align:top;">is_py2</td><td style="vertical-align:top;">:</td><td><div>True</div></td></tr><tr><td style="font-weight:bold;vertical-align:top;">is_pypy</td><td style="vertical-align:top;">:</td><td><div>False</div></td></tr><tr><td style="font-weight:bold;vertical-align:top;">is_source</td><td style="vertical-align:top;">:</td><td><div>True</div></td></tr><tr><td style="font-weight:bold;vertical-align:top;">path_info</td><td style="vertical-align:top;">:</td><td><div>/grcdev/default/process_type</div></td></tr><tr><td style="font-weight:bold;vertical-align:top;">query_string</td><td style="vertical-align:top;">:</td><td><div></div></td></tr><tr><td style="font-weight:bold;vertical-align:top;">remote_addr</td><td style="vertical-align:top;">:</td><td><div>10.0.0.224</div></td></tr><tr><td style="font-weight:bold;vertical-align:top;">remote_port</td><td style="vertical-align:top;">:</td><td><div>56026</div></td></tr><tr><td style="font-weight:bold;vertical-align:top;">request_method</td><td style="vertical-align:top;">:</td><td><div>GET</div></td></tr><tr><td style="font-weight:bold;vertical-align:top;">request_uri</td><td style="vertical-align:top;">:</td><td><div>/grcdev/default/process_type</div></td></tr><tr><td style="font-weight:bold;vertical-align:top;">script_name</td><td style="vertical-align:top;">:</td><td><div></div></td></tr><tr><td style="font-weight:bold;vertical-align:top;">server_name</td><td style="vertical-align:top;">:</td><td><div>w2p-grcbit.pythonanywhere.com</div></td></tr><tr><td style="font-weight:bold;vertical-align:top;">server_port</td><td style="vertical-align:top;">:</td><td><div>443</div></td></tr><tr><td style="font-weight:bold;vertical-align:top;">server_protocol</td><td style="vertical-align:top;">:</td><td><div>HTTP/1.1</div></td></tr><tr><td style="font-weight:bold;vertical-align:top;">uwsgi.node</td><td style="vertical-align:top;">:</td><td><div>blue-liveweb9</div></td></tr><tr><td style="font-weight:bold;vertical-align:top;">uwsgi.version</td><td style="vertical-align:top;">:</td><td><div>2.0.17.1</div></td></tr><tr><td style="font-weight:bold;vertical-align:top;">uwsgi_node</td><td style="vertical-align:top;">:</td><td><div>blue-liveweb9</div></td></tr><tr><td style="font-weight:bold;vertical-align:top;">uwsgi_version</td><td style="vertical-align:top;">:</td><td><div>2.0.17.1</div></td></tr><tr><td style="font-weight:bold;vertical-align:top;">web2py_path</td><td style="vertical-align:top;">:</td><td><div>/home/grcbit/web2py</div></td></tr><tr><td style="font-weight:bold;vertical-align:top;">web2py_version</td><td style="vertical-align:top;">:</td><td><div>2.18.5-stable+timestamp.2019.04.08.04.22.03</div></td></tr><tr><td style="font-weight:bold;vertical-align:top;">wsgi.errors</td><td style="vertical-align:top;">:</td><td><div>&lt;uwsgi_file__bin_user_wsgi_wrapper.ErrorLogFile object at 0x7faec835c710&gt;</div></td></tr><tr><td style="font-weight:bold;vertical-align:top;">wsgi.file_wrapper</td><td style="vertical-align:top;">:</td><td><div>&lt;built-in function uwsgi_sendfile&gt;</div></td></tr><tr><td style="font-weight:bold;vertical-align:top;">wsgi.input</td><td style="vertical-align:top;">:</td><td><div>&lt;uwsgi._Input object at 0x7faec968bd20&gt;</div></td></tr><tr><td style="font-weight:bold;vertical-align:top;">wsgi.multiprocess</td><td style="vertical-align:top;">:</td><td><div>True</div></td></tr><tr><td style="font-weight:bold;vertical-align:top;">wsgi.multithread</td><td style="vertical-align:top;">:</td><td><div>False</div></td></tr><tr><td style="font-weight:bold;vertical-align:top;">wsgi.run_once</td><td style="vertical-align:top;">:</td><td><div>False</div></td></tr><tr><td style="font-weight:bold;vertical-align:top;">wsgi.url_scheme</td><td style="vertical-align:top;">:</td><td><div>https</div></td></tr><tr><td style="font-weight:bold;vertical-align:top;">wsgi.version</td><td style="vertical-align:top;">:</td><td><div><table><tr><td><div>1</div></td></tr><tr><td><div>0</div></td></tr></table></div></td></tr><tr><td style="font-weight:bold;vertical-align:top;">wsgi_errors</td><td style="vertical-align:top;">:</td><td><div>&lt;uwsgi_file__bin_user_wsgi_wrapper.ErrorLogFile object at 0x7faec835c710&gt;</div></td></tr><tr><td style="font-weight:bold;vertical-align:top;">wsgi_file_wrapper</td><td style="vertical-align:top;">:</td><td><div>&lt;built-in function uwsgi_sendfile&gt;</div></td></tr><tr><td style="font-weight:bold;vertical-align:top;">wsgi_input</td><td style="vertical-align:top;">:</td><td><div>&lt;uwsgi._Input object at 0x7faec968bd20&gt;</div></td></tr><tr><td style="font-weight:bold;vertical-align:top;">wsgi_multiprocess</td><td style="vertical-align:top;">:</td><td><div>True</div></td></tr><tr><td style="font-weight:bold;vertical-align:top;">wsgi_multithread</td><td style="vertical-align:top;">:</td><td><div>False</div></td></tr><tr><td style="font-weight:bold;vertical-align:top;">wsgi_run_once</td><td style="vertical-align:top;">:</td><td><div>False</div></td></tr><tr><td style="font-weight:bold;vertical-align:top;">wsgi_url_scheme</td><td style="vertical-align:top;">:</td><td><div>https</div></td></tr><tr><td style="font-weight:bold;vertical-align:top;">wsgi_version</td><td style="vertical-align:top;">:</td><td><div><table><tr><td><div>1</div></td></tr><tr><td><div>0</div></td></tr></table></div></td></tr></table></div></td></tr><tr><td style="font-weight:bold;vertical-align:top;">extension</td><td style="vertical-align:top;">:</td><td><div>html</div></td></tr><tr><td style="font-weight:bold;vertical-align:top;">folder</td><td style="vertical-align:top;">:</td><td><div>/home/grcbit/web2py/applications/grcdev</div></td></tr><tr><td style="font-weight:bold;vertical-align:top;">function</td><td style="vertical-align:top;">:</td><td><div>process_type</div></td></tr><tr><td style="font-weight:bold;vertical-align:top;">global_settings</td><td style="vertical-align:top;">:</td><td><div><table><tr><td style="font-weight:bold;vertical-align:top;">app_folders</td><td style="vertical-align:top;">:</td><td><div>set([&#x27;/home/grcbit/web2py/applications/grcdev&#x27;])</div></td></tr><tr><td style="font-weight:bold;vertical-align:top;">applications_parent</td><td style="vertical-align:top;">:</td><td><div>/home/grcbit/web2py</div></td></tr><tr><td style="font-weight:bold;vertical-align:top;">db_sessions</td><td style="vertical-align:top;">:</td><td><div>set([])</div></td></tr><tr><td style="font-weight:bold;vertical-align:top;">debugging</td><td style="vertical-align:top;">:</td><td><div>False</div></td></tr><tr><td style="font-weight:bold;vertical-align:top;">gluon_parent</td><td style="vertical-align:top;">:</td><td><div>/home/grcbit/web2py</div></td></tr><tr><td style="font-weight:bold;vertical-align:top;">is_jython</td><td style="vertical-align:top;">:</td><td><div>False</div></td></tr><tr><td style="font-weight:bold;vertical-align:top;">is_py2</td><td style="vertical-align:top;">:</td><td><div>True</div></td></tr><tr><td style="font-weight:bold;vertical-align:top;">is_pypy</td><td style="vertical-align:top;">:</td><td><div>False</div></td></tr><tr><td style="font-weight:bold;vertical-align:top;">is_source</td><td style="vertical-align:top;">:</td><td><div>True</div></td></tr><tr><td style="font-weight:bold;vertical-align:top;">local_hosts</td><td style="vertical-align:top;">:</td><td><div><table><tr><td><div>35.173.69.207</div></td></tr><tr><td><div>w2p-grcbit.pythonanywhere.com</div></td></tr><tr><td><div>::ffff:127.0.0.1</div></td></tr><tr><td><div>::1</div></td></tr><tr><td><div>blue-liveweb9</div></td></tr><tr><td><div>localhost</div></td></tr><tr><td><div>127.0.0.1</div></td></tr></table></div></td></tr><tr><td style="font-weight:bold;vertical-align:top;">web2py_version</td><td style="vertical-align:top;">:</td><td><div>2.18.5-stable+timestamp.2019.04.08.04.22.03</div></td></tr></table></div></td></tr><tr><td style="font-weight:bold;vertical-align:top;">is_https</td><td style="vertical-align:top;">:</td><td><div>True</div></td></tr><tr><td style="font-weight:bold;vertical-align:top;">is_local</td><td style="vertical-align:top;">:</td><td><div>False</div></td></tr><tr><td style="font-weight:bold;vertical-align:top;">is_restful</td><td style="vertical-align:top;">:</td><td><div>False</div></td></tr><tr><td style="font-weight:bold;vertical-align:top;">is_scheduler</td><td style="vertical-align:top;">:</td><td><div>False</div></td></tr><tr><td style="font-weight:bold;vertical-align:top;">is_shell</td><td style="vertical-align:top;">:</td><td><div>False</div></td></tr><tr><td style="font-weight:bold;vertical-align:top;">method</td><td style="vertical-align:top;">:</td><td><div>GET</div></td></tr><tr><td style="font-weight:bold;vertical-align:top;">now</td><td style="vertical-align:top;">:</td><td><div>datetime.datetime(2021, 9, 14, 17, 58, 47, 860823)</div></td></tr><tr><td style="font-weight:bold;vertical-align:top;">raw_args</td><td style="vertical-align:top;">:</td><td><div></div></td></tr><tr><td style="font-weight:bold;vertical-align:top;">raw_extension</td><td style="vertical-align:top;">:</td><td><div>None</div></td></tr><tr><td style="font-weight:bold;vertical-align:top;">url</td><td style="vertical-align:top;">:</td><td><div>/grcdev/default/process_type</div></td></tr><tr><td style="font-weight:bold;vertical-align:top;">utcnow</td><td style="vertical-align:top;">:</td><td><div>datetime.datetime(2021, 9, 14, 17, 58, 47, 860860)</div></td></tr><tr><td style="font-weight:bold;vertical-align:top;">wsgi</td><td style="vertical-align:top;">:</td><td><div>&lt;gluon.main.LazyWSGI object at 0x7faec8317e10&gt;</div></td></tr></table></div>'
tRp64
sS'frames'
p65
(lp66
(dp67
S'file'
p68
S'/home/grcbit/web2py/gluon/restricted.py'
p69
sS'dump'
p70
(dp71
S'environment'
p72
S"{'A': <class 'gluon.html.A'>, 'ANY_OF': <class 'pydal.validators.ANY_OF'>, 'ASSIGNJS': <function ASSIGNJS>, 'AppConfig': <function AppConfig>, 'Auth': <class 'gluon.tools.Auth'>, 'B': <class 'gluon.html.B'>, 'BEAUTIFY': <class 'gluon.html.BEAUTIFY'>, 'BODY': <class 'gluon.html.BODY'>, 'BR': <class 'gluon.html.BR'>, 'BUTTON': <class 'gluon.html.BUTTON'>, ...}"
p73
sS'ccode'
p74
S'<code object <module> at 0x7faec81b77b0, file "/...web2py/applications/grcdev/models/db.py", line 2>'
p75
ssS'lnum'
p76
I219
sS'lines'
p77
(dp78
I214
S'    if environment is None:'
p79
sI215
S'        environment = {}'
p80
sI216
S"    environment['__file__'] = layer"
p81
sI217
S"    environment['__name__'] = '__restricted__'"
p82
sI218
S'    try:'
p83
sI219
S'        exec(ccode, environment)'
p84
sI220
S'    except HTTP:'
p85
sI221
S'        raise'
p86
sI222
S'    except RestrictedError:'
p87
sI223
S'        # do not encapsulate (obfuscate) the original RestrictedError'
p88
ssS'call'
p89
S'(ccode=<code object <module> at 0x7faec81b77b0, file "/...web2py/applications/grcdev/models/db.py", line 2>, environment={\'A\': <class \'gluon.html.A\'>, \'ANY_OF\': <class \'pydal.validators.ANY_OF\'>, \'ASSIGNJS\': <function ASSIGNJS>, \'AppConfig\': <function AppConfig>, \'Auth\': <class \'gluon.tools.Auth\'>, \'B\': <class \'gluon.html.B\'>, \'BEAUTIFY\': <class \'gluon.html.BEAUTIFY\'>, \'BODY\': <class \'gluon.html.BODY\'>, \'BR\': <class \'gluon.html.BR\'>, \'BUTTON\': <class \'gluon.html.BUTTON\'>, ...}, layer=\'/home/grcbit/web2py/applications/grcdev/models/db.py\', scode=<code object <module> at 0x7faec81b77b0, file "/...web2py/applications/grcdev/models/db.py", line 2>)'
p90
sS'func'
p91
S'restricted'
p92
sa(dp93
g68
S'/home/grcbit/web2py/applications/grcdev/models/db.py'
p94
sg70
(dp95
S'r'
S'undefined'
p96
sS'builtinformat'
p97
S'<built-in function format>'
p98
ssg76
I298
sg77
(dp99
I293
S"    Field('write_date', 'datetime', label=T('Write Date')),"
p100
sI294
S"    Field('risk_analyst_approval', 'boolean', label=T('Risk Aanalyst (Approval)'), default='F'),"
p101
sI295
S"    Field('risk_manager_approval', 'boolean', label=T('Risk Manager (Approval)'), default='F'),"
p102
sI296
S"    Field('risk_analyst_log', 'string', label=T('Risk Aanalyst (LOG)')),"
p103
sI297
S"    Field('risk_manager_log', 'string', label=T('Risk Manager (LOG)')),"
p104
sI298
S"    format=lambda r: '%s' % (r.name)"
p105
sI299
S'    )'
p106
sI300
S''
sI301
S"db.define_table('control_catalog',"
p107
sI302
S"    Field('name', 'string', label=T('Name'), unique=True),"
p108
ssg89
S'()'
p109
sg91
S'<module>'
p110
sa(dp111
g68
S'/home/grcbit/web2py/gluon/packages/dal/pydal/base.py'
p112
sg70
(dp113
S'fields'
p114
S'(<pydal.objects.Field object>, <pydal.objects.Field object>, <pydal.objects.Field object>, <pydal.objects.Field object>, <pydal.objects.Field object>, <pydal.objects.Field object>, <pydal.objects.Field object>, <pydal.objects.Field object>, <pydal.objects.Field object>)'
p115
sS'self'
p116
S'<DAL uri="sqlite://storage.sqlite">'
p117
sS'tablename'
p118
S"'benchmark'"
p119
sS'kwargs'
p120
S"{'format': <function <lambda>>}"
p121
sS'table'
p122
g96
sS'self.lazy_define_table'
p123
S'<bound method DAL.lazy_define_table of <DAL uri="sqlite://storage.sqlite">>'
p124
ssg76
I592
sg77
(dp125
I587
S'        if self._lazy_tables:'
p126
sI588
S'            if tablename not in self._LAZY_TABLES or redefine:'
p127
sI589
S'                self._LAZY_TABLES[tablename] = (tablename, fields, kwargs)'
p128
sI590
S'            table = None'
p129
sI591
S'        else:'
p130
sI592
S'            table = self.lazy_define_table(tablename, *fields, **kwargs)'
p131
sI593
S'        if tablename not in self.tables:'
p132
sI594
S'            self.tables.append(tablename)'
p133
sI595
S'        return table'
p134
sI596
S''
ssg89
S'(self=<DAL uri="sqlite://storage.sqlite">, tablename=\'benchmark\', *fields=(<pydal.objects.Field object>, <pydal.objects.Field object>, <pydal.objects.Field object>, <pydal.objects.Field object>, <pydal.objects.Field object>, <pydal.objects.Field object>, <pydal.objects.Field object>, <pydal.objects.Field object>, <pydal.objects.Field object>), **kwargs={\'format\': <function <lambda>>})'
p135
sg91
S'define_table'
p136
sa(dp137
g68
S'/home/grcbit/web2py/gluon/packages/dal/pydal/base.py'
p138
sg70
(dp139
S'polymodel'
p140
S'None'
p141
ssg76
I626
sg77
(dp142
I621
S'            try:'
p143
sI622
S'                GLOBAL_LOCKER.acquire()'
p144
sI623
S'                self._adapter.create_table('
p145
sI624
S'                    table, migrate=migrate,'
p146
sI625
S'                    fake_migrate=fake_migrate,'
p147
sI626
S'                    polymodel=polymodel)'
p148
sI627
S'            finally:'
p149
sI628
S'                GLOBAL_LOCKER.release()'
p150
sI629
S'        else:'
p151
sI630
S'            table._dbt = None'
p152
ssg89
S'(self=<DAL uri="sqlite://storage.sqlite">, tablename=\'benchmark\', *fields=(<pydal.objects.Field object>, <pydal.objects.Field object>, <pydal.objects.Field object>, <pydal.objects.Field object>, <pydal.objects.Field object>, <pydal.objects.Field object>, <pydal.objects.Field object>, <pydal.objects.Field object>, <pydal.objects.Field object>), **kwargs={\'format\': <function <lambda>>})'
p153
sg91
S'lazy_define_table'
p154
sa(dp155
g68
S'/home/grcbit/web2py/gluon/packages/dal/pydal/adapters/base.py'
p156
sg70
(dp157
S'self'
p158
S'<pydal.adapters.sqlite.SQLite object>'
p159
sS'args'
p160
S'(<Table benchmark (id, name, description, bench_f...er_approval, risk_analyst_log, risk_manager_log)>,)'
p161
sS'self.migrator'
p162
S'<pydal.migrator.Migrator object>'
p163
sS'self.migrator.create_table'
p164
S'<bound method Migrator.create_table of <pydal.migrator.Migrator object>>'
p165
sS'kwargs'
p166
S"{'fake_migrate': False, 'migrate': True, 'polymodel': None}"
p167
ssg76
I798
sg77
(dp168
I800
S'    def _drop_table_cleanup(self, table):'
p169
sI801
S'        super(SQLAdapter, self)._drop_table_cleanup(table)'
p170
sI802
S'        if table._dbt:'
p171
sI793
S''
sI794
S'    def bulk_insert(self, table, items):'
p172
sI795
S'        return [self.insert(table, item) for item in items]'
p173
sI796
S''
sI797
S'    def create_table(self, *args, **kwargs):'
p174
sI798
S'        return self.migrator.create_table(*args, **kwargs)'
p175
sI799
S''
ssg89
S"(self=<pydal.adapters.sqlite.SQLite object>, *args=(<Table benchmark (id, name, description, bench_f...er_approval, risk_analyst_log, risk_manager_log)>,), **kwargs={'fake_migrate': False, 'migrate': True, 'polymodel': None})"
p176
sg91
S'create_table'
p177
sa(dp178
g68
S'/home/grcbit/web2py/gluon/packages/dal/pydal/migrator.py'
p179
sg70
(dp180
S'fake_migrate'
p181
S'False'
p182
ssg76
I318
sg77
(dp183
I320
S'        return query'
p184
sI321
S''
sI322
S'    def _fix(self, item):'
p185
sI313
S'            if sql_fields != sql_fields_old:'
p186
sI314
S'                self.migrate_table('
p187
sI315
S'                    table,'
p188
sI316
S'                    sql_fields, sql_fields_old,'
p189
sI317
S'                    sql_fields_aux, None,'
p190
sI318
S'                    fake_migrate=fake_migrate'
p191
sI319
S'                    )'
p192
ssg89
S'(self=<pydal.migrator.Migrator object>, table=<Table benchmark (id, name, description, bench_f...er_approval, risk_analyst_log, risk_manager_log)>, migrate=True, fake_migrate=False, polymodel=None)'
p193
sg91
g177
sa(dp194
g68
S'/home/grcbit/web2py/gluon/packages/dal/pydal/migrator.py'
p195
sg70
(dp196
S'self'
p197
S'<pydal.migrator.Migrator object>'
p198
sS'self.adapter.execute'
p199
S'<bound method SQLite.wrap of <pydal.adapters.sqlite.SQLite object>>'
p200
sS'self.adapter'
p201
S'<pydal.adapters.sqlite.SQLite object>'
p202
sS'sub_query'
p203
S'\'ALTER TABLE "benchmark" ADD "name" CHAR(512) UNIQUE;\''
p204
ssg76
I451
sg77
(dp205
I448
S'                            self.save_dbt(table, sql_fields_current)'
p206
sI449
S"                        self.log('faked!\\n', table)"
p207
sI450
S'                    else:'
p208
sI451
S'                        self.adapter.execute(sub_query)'
p209
sI452
S'                        # Caveat: mysql, oracle and firebird'
p210
sI453
S'                        # do not allow multiple alter table'
p211
sI454
S'                        # in one transaction so we must commit'
p212
sI455
S'                        # partial transactions and'
p213
sI446
S'                    if fake_migrate:'
p214
sI447
S'                        if db._adapter.commit_on_alter_table:'
p215
ssg89
S'(self=<pydal.migrator.Migrator object>, table=<Table benchmark (id, name, description, bench_f...er_approval, risk_analyst_log, risk_manager_log)>, sql_fields={\'bench_file\': {\'length\': 512, \'notnull\': False, \'raw_rname\': \'bench_file\', \'rname\': \'"bench_file"\', \'sortable\': 4, \'sql\': \'CHAR(512)\', \'type\': \'upload\', \'unique\': False}, \'create_date\': {\'length\': 512, \'notnull\': False, \'raw_rname\': \'create_date\', \'rname\': \'"create_date"\', \'sortable\': 5, \'sql\': \'TIMESTAMP\', \'type\': \'datetime\', \'unique\': False}, \'description\': {\'length\': 32768, \'notnull\': False, \'raw_rname\': \'description\', \'rname\': \'"description"\', \'sortable\': 3, \'sql\': \'TEXT\', \'type\': \'text\', \'unique\': False}, \'id\': {\'length\': 512, \'notnull\': False, \'raw_rname\': \'id\', \'rname\': \'"id"\', \'sortable\': 1, \'sql\': \'INTEGER PRIMARY KEY AUTOINCREMENT\', \'type\': \'id\', \'unique\': False}, \'name\': {\'length\': 512, \'notnull\': False, \'raw_rname\': \'name\', \'rname\': \'"name"\', \'sortable\': 2, \'sql\': \'CHAR(512) UNIQUE\', \'type\': \'string\', \'unique\': True}, \'risk_analyst_approval\': {\'length\': 512, \'notnull\': False, \'raw_rname\': \'risk_analyst_approval\', \'rname\': \'"risk_analyst_approval"\', \'sortable\': 7, \'sql\': \'CHAR(1)\', \'type\': \'boolean\', \'unique\': False}, \'risk_analyst_log\': {\'length\': 512, \'notnull\': False, \'raw_rname\': \'risk_analyst_log\', \'rname\': \'"risk_analyst_log"\', \'sortable\': 9, \'sql\': \'CHAR(512)\', \'type\': \'string\', \'unique\': False}, \'risk_manager_approval\': {\'length\': 512, \'notnull\': False, \'raw_rname\': \'risk_manager_approval\', \'rname\': \'"risk_manager_approval"\', \'sortable\': 8, \'sql\': \'CHAR(1)\', \'type\': \'boolean\', \'unique\': False}, \'risk_manager_log\': {\'length\': 512, \'notnull\': False, \'raw_rname\': \'risk_manager_log\', \'rname\': \'"risk_manager_log"\', \'sortable\': 10, \'sql\': \'CHAR(512)\', \'type\': \'string\', \'unique\': False}, \'write_date\': {\'length\': 512, \'notnull\': False, \'raw_rname\': \'write_date\', \'rname\': \'"write_date"\', \'sortable\': 6, \'sql\': \'TIMESTAMP\', \'type\': \'datetime\', \'unique\': False}}, sql_fields_old={\'bench_file\': {\'length\': 512, \'notnull\': False, \'raw_rname\': \'bench_file\', \'rname\': \'"bench_file"\', \'sortable\': 4, \'sql\': \'CHAR(512)\', \'type\': \'upload\', \'unique\': False}, \'bench_version\': {\'length\': 512, \'notnull\': False, \'raw_rname\': \'bench_version\', \'rname\': \'"bench_version"\', \'sortable\': 2, \'sql\': \'CHAR(512)\', \'type\': \'string\', \'unique\': False}, \'create_date\': {\'length\': 512, \'notnull\': False, \'raw_rname\': \'create_date\', \'rname\': \'"create_date"\', \'sortable\': 5, \'sql\': \'TIMESTAMP\', \'type\': \'datetime\', \'unique\': False}, \'description\': {\'length\': 32768, \'notnull\': False, \'raw_rname\': \'description\', \'rname\': \'"description"\', \'sortable\': 3, \'sql\': \'TEXT\', \'type\': \'text\', \'unique\': False}, \'id\': {\'length\': 512, \'notnull\': False, \'raw_rname\': \'id\', \'rname\': \'"id"\', \'sortable\': 1, \'sql\': \'INTEGER PRIMARY KEY AUTOINCREMENT\', \'type\': \'id\', \'unique\': False}, \'risk_analyst_approval\': {\'length\': 512, \'notnull\': False, \'raw_rname\': \'risk_analyst_approval\', \'rname\': \'"risk_analyst_approval"\', \'sortable\': 7, \'sql\': \'CHAR(1)\', \'type\': \'boolean\', \'unique\': False}, \'risk_analyst_log\': {\'length\': 512, \'notnull\': False, \'raw_rname\': \'risk_analyst_log\', \'rname\': \'"risk_analyst_log"\', \'sortable\': 9, \'sql\': \'CHAR(512)\', \'type\': \'string\', \'unique\': False}, \'risk_manager_approval\': {\'length\': 512, \'notnull\': False, \'raw_rname\': \'risk_manager_approval\', \'rname\': \'"risk_manager_approval"\', \'sortable\': 8, \'sql\': \'CHAR(1)\', \'type\': \'boolean\', \'unique\': False}, \'risk_manager_log\': {\'length\': 512, \'notnull\': False, \'raw_rname\': \'risk_manager_log\', \'rname\': \'"risk_manager_log"\', \'sortable\': 10, \'sql\': \'CHAR(512)\', \'type\': \'string\', \'unique\': False}, \'write_date\': {\'length\': 512, \'notnull\': False, \'raw_rname\': \'write_date\', \'rname\': \'"write_date"\', \'sortable\': 6, \'sql\': \'TIMESTAMP\', \'type\': \'datetime\', \'unique\': False}}, sql_fields_aux={\'bench_file\': {\'sql\': \'CHAR(512)\'}, \'create_date\': {\'sql\': \'TIMESTAMP\'}, \'description\': {\'sql\': \'TEXT\'}, \'id\': {\'sql\': \'INTEGER PRIMARY KEY AUTOINCREMENT\'}, \'name\': {\'sql\': \'CHAR(512) UNIQUE\'}, \'risk_analyst_approval\': {\'sql\': \'CHAR(1)\'}, \'risk_analyst_log\': {\'sql\': \'CHAR(512)\'}, \'risk_manager_approval\': {\'sql\': \'CHAR(1)\'}, \'risk_manager_log\': {\'sql\': \'CHAR(512)\'}, \'write_date\': {\'sql\': \'TIMESTAMP\'}}, logfile=None, fake_migrate=False)'
p216
sg91
S'migrate_table'
p217
sa(dp218
g68
S'/home/grcbit/web2py/gluon/packages/dal/pydal/adapters/__init__.py'
p219
sg70
(dp220
S'kwargs'
p221
g21
sS'args'
p222
S'(<pydal.adapters.sqlite.SQLite object>, \'ALTER TABLE "benchmark" ADD "name" CHAR(512) UNIQUE;\')'
p223
sS'f'
S'<function execute>'
p224
ssg76
I67
sg77
(dp225
I64
S'            if len(args) > 1:'
p226
sI65
S'                raise ValueError(args[1])'
p227
sI66
S"            raise RuntimeError('no connection available')"
p228
sI67
S'        return f(*args, **kwargs)'
p229
sI68
S'    return wrap'
p230
sI69
S''
sI70
S''
sI71
S'from .base import SQLAdapter, NoSQLAdapter'
p231
sI62
S'    def wrap(*args, **kwargs):'
p232
sI63
S'        if not args[0].connection:'
p233
ssg89
S'(*args=(<pydal.adapters.sqlite.SQLite object>, \'ALTER TABLE "benchmark" ADD "name" CHAR(512) UNIQUE;\'), **kwargs={})'
p234
sg91
S'wrap'
p235
sa(dp236
g68
S'/home/grcbit/web2py/gluon/packages/dal/pydal/adapters/base.py'
p237
sg70
(dp238
S'rv'
p239
g96
sS'self'
p240
S'<pydal.adapters.sqlite.SQLite object>'
p241
sS'args'
p242
S'(\'ALTER TABLE "benchmark" ADD "name" CHAR(512) UNIQUE;\',)'
p243
sS'self.cursor'
p244
S'<sqlite3.Cursor object>'
p245
sS'command'
p246
S'\'ALTER TABLE "benchmark" ADD "name" CHAR(512) UNIQUE;\''
p247
sS'self.cursor.execute'
p248
S'<built-in method execute of sqlite3.Cursor object>'
p249
sS'kwargs'
p250
g21
ssg76
I413
sg77
(dp251
I416
S'        return rv'
p252
sI417
S''
sI408
S'    def execute(self, *args, **kwargs):'
p253
sI409
S'        command = self.filter_sql_command(args[0])'
p254
sI410
S'        handlers = self._build_handlers_for_execution()'
p255
sI411
S'        for handler in handlers:'
p256
sI412
S'            handler.before_execute(command)'
p257
sI413
S'        rv = self.cursor.execute(command, *args[1:], **kwargs)'
p258
sI414
S'        for handler in handlers:'
p259
sI415
S'            handler.after_execute(command)'
p260
ssg89
S'(self=<pydal.adapters.sqlite.SQLite object>, *args=(\'ALTER TABLE "benchmark" ADD "name" CHAR(512) UNIQUE;\',), **kwargs={})'
p261
sg91
S'execute'
p262
sasS'pyver'
p263
S'Python 2.7.12: /usr/local/bin/uwsgi (prefix: /usr)'
p264
sS'session'
p265
g63
(S's\x1a\x00\x00\x00<div><table></table></div>'
tRp266
sS'etype'
p267
S"<class 'sqlite3.OperationalError'>"
p268
sS'date'
p269
S'Tue Sep 14 17:58:48 2021'
p270
sS'response'
p271
g63
(S's\x12\x1a\x00\x00<div><table><tr><td style="font-weight:bold;vertical-align:top;">body</td><td style="vertical-align:top;">:</td><td><div>&lt;cStringIO.StringO object at 0x7faec8378f80&gt;</div></td></tr><tr><td style="font-weight:bold;vertical-align:top;">cookies</td><td style="vertical-align:top;">:</td><td><div><table><tr><td style="font-weight:bold;vertical-align:top;">session_id_grcdev</td><td style="vertical-align:top;">:</td><td><div>148.244.169.125-f2e36075-b0b8-42e7-9ebf-b44b13dfd0fa<table><tr><td style="font-weight:bold;vertical-align:top;">comment</td><td style="vertical-align:top;">:</td><td><div></div></td></tr><tr><td style="font-weight:bold;vertical-align:top;">domain</td><td style="vertical-align:top;">:</td><td><div></div></td></tr><tr><td style="font-weight:bold;vertical-align:top;">expires</td><td style="vertical-align:top;">:</td><td><div></div></td></tr><tr><td style="font-weight:bold;vertical-align:top;">httponly</td><td style="vertical-align:top;">:</td><td><div></div></td></tr><tr><td style="font-weight:bold;vertical-align:top;">max-age</td><td style="vertical-align:top;">:</td><td><div></div></td></tr><tr><td style="font-weight:bold;vertical-align:top;">path</td><td style="vertical-align:top;">:</td><td><div>/</div></td></tr><tr><td style="font-weight:bold;vertical-align:top;">secure</td><td style="vertical-align:top;">:</td><td><div></div></td></tr><tr><td style="font-weight:bold;vertical-align:top;">version</td><td style="vertical-align:top;">:</td><td><div></div></td></tr></table></div></td></tr></table></div></td></tr><tr><td style="font-weight:bold;vertical-align:top;">delimiters</td><td style="vertical-align:top;">:</td><td><div><table><tr><td><div>{{</div></td></tr><tr><td><div>}}</div></td></tr></table></div></td></tr><tr><td style="font-weight:bold;vertical-align:top;">files</td><td style="vertical-align:top;">:</td><td><div><table></table></div></td></tr><tr><td style="font-weight:bold;vertical-align:top;">flash</td><td style="vertical-align:top;">:</td><td><div></div></td></tr><tr><td style="font-weight:bold;vertical-align:top;">form_label_separator</td><td style="vertical-align:top;">:</td><td><div></div></td></tr><tr><td style="font-weight:bold;vertical-align:top;">formstyle</td><td style="vertical-align:top;">:</td><td><div>bootstrap4_inline</div></td></tr><tr><td style="font-weight:bold;vertical-align:top;">generic_patterns</td><td style="vertical-align:top;">:</td><td><div><table></table></div></td></tr><tr><td style="font-weight:bold;vertical-align:top;">google_analytics_id</td><td style="vertical-align:top;">:</td><td><div>None</div></td></tr><tr><td style="font-weight:bold;vertical-align:top;">headers</td><td style="vertical-align:top;">:</td><td><div><table><tr><td style="font-weight:bold;vertical-align:top;">X-Powered-By</td><td style="vertical-align:top;">:</td><td><div>web2py</div></td></tr></table></div></td></tr><tr><td style="font-weight:bold;vertical-align:top;">menu</td><td style="vertical-align:top;">:</td><td><div><table></table></div></td></tr><tr><td style="font-weight:bold;vertical-align:top;">meta</td><td style="vertical-align:top;">:</td><td><div><table><tr><td style="font-weight:bold;vertical-align:top;">author</td><td style="vertical-align:top;">:</td><td><div>Your Name &lt;you@example.com&gt;</div></td></tr><tr><td style="font-weight:bold;vertical-align:top;">description</td><td style="vertical-align:top;">:</td><td><div>a cool new app</div></td></tr><tr><td style="font-weight:bold;vertical-align:top;">generator</td><td style="vertical-align:top;">:</td><td><div>Web2py Web Framework</div></td></tr><tr><td style="font-weight:bold;vertical-align:top;">keywords</td><td style="vertical-align:top;">:</td><td><div><table><tr><td><div>web2py</div></td></tr><tr><td><div>python</div></td></tr><tr><td><div>framework</div></td></tr></table></div></td></tr></table></div></td></tr><tr><td style="font-weight:bold;vertical-align:top;">models_to_run</td><td style="vertical-align:top;">:</td><td><div><table><tr><td><div>^\\w+\\.py$</div></td></tr><tr><td><div>^default/\\w+\\.py$</div></td></tr><tr><td><div>^default/process_type/\\w+\\.py$</div></td></tr></table></div></td></tr><tr><td style="font-weight:bold;vertical-align:top;">postprocessing</td><td style="vertical-align:top;">:</td><td><div><table></table></div></td></tr><tr><td style="font-weight:bold;vertical-align:top;">session_client</td><td style="vertical-align:top;">:</td><td><div>148.244.169.125</div></td></tr><tr><td style="font-weight:bold;vertical-align:top;">session_cookie_compression_level</td><td style="vertical-align:top;">:</td><td><div>None</div></td></tr><tr><td style="font-weight:bold;vertical-align:top;">session_cookie_expires</td><td style="vertical-align:top;">:</td><td><div>None</div></td></tr><tr><td style="font-weight:bold;vertical-align:top;">session_data_name</td><td style="vertical-align:top;">:</td><td><div>session_data_grcdev</div></td></tr><tr><td style="font-weight:bold;vertical-align:top;">session_filename</td><td style="vertical-align:top;">:</td><td><div>/home/grcbit/web2py/applications/grcdev/sessions/148.244.169.125-806575fd-f774-49e8-9ac2-3d2ed5fa65f7</div></td></tr><tr><td style="font-weight:bold;vertical-align:top;">session_hash</td><td style="vertical-align:top;">:</td><td><div>43ba1d35cf3cbf6d8c4c6228719a7f4b</div></td></tr><tr><td style="font-weight:bold;vertical-align:top;">session_id</td><td style="vertical-align:top;">:</td><td><div>148.244.169.125-806575fd-f774-49e8-9ac2-3d2ed5fa65f7</div></td></tr><tr><td style="font-weight:bold;vertical-align:top;">session_id_name</td><td style="vertical-align:top;">:</td><td><div>session_id_grcdev</div></td></tr><tr><td style="font-weight:bold;vertical-align:top;">session_locked</td><td style="vertical-align:top;">:</td><td><div>False</div></td></tr><tr><td style="font-weight:bold;vertical-align:top;">session_masterapp</td><td style="vertical-align:top;">:</td><td><div>grcdev</div></td></tr><tr><td style="font-weight:bold;vertical-align:top;">session_new</td><td style="vertical-align:top;">:</td><td><div>True</div></td></tr><tr><td style="font-weight:bold;vertical-align:top;">session_storage_type</td><td style="vertical-align:top;">:</td><td><div>file</div></td></tr><tr><td style="font-weight:bold;vertical-align:top;">show_toolbar</td><td style="vertical-align:top;">:</td><td><div>False</div></td></tr><tr><td style="font-weight:bold;vertical-align:top;">status</td><td style="vertical-align:top;">:</td><td><div>200</div></td></tr><tr><td style="font-weight:bold;vertical-align:top;">view</td><td style="vertical-align:top;">:</td><td><div>default/process_type.html</div></td></tr></table></div>'
tRp272
sS'locals'
p273
(dp274
S'handlers'
p275
S'[<pydal.helpers.classes.TimingHandler object>]'
p276
sS'self'
p277
S'<pydal.adapters.sqlite.SQLite object>'
p278
sg48
S'(\'ALTER TABLE "benchmark" ADD "name" CHAR(512) UNIQUE;\',)'
p279
sS'handler'
p280
S'<pydal.helpers.classes.TimingHandler object>'
p281
sS'command'
p282
S'\'ALTER TABLE "benchmark" ADD "name" CHAR(512) UNIQUE;\''
p283
sS'kwargs'
p284
g21
sssS'traceback'
p285
S'Traceback (most recent call last):\n  File "/home/grcbit/web2py/gluon/restricted.py", line 219, in restricted\n    exec(ccode, environment)\n  File "/home/grcbit/web2py/applications/grcdev/models/db.py", line 298, in <module>\n    format=lambda r: \'%s\' % (r.name)\n  File "/home/grcbit/web2py/gluon/packages/dal/pydal/base.py", line 592, in define_table\n    table = self.lazy_define_table(tablename, *fields, **kwargs)\n  File "/home/grcbit/web2py/gluon/packages/dal/pydal/base.py", line 626, in lazy_define_table\n    polymodel=polymodel)\n  File "/home/grcbit/web2py/gluon/packages/dal/pydal/adapters/base.py", line 798, in create_table\n    return self.migrator.create_table(*args, **kwargs)\n  File "/home/grcbit/web2py/gluon/packages/dal/pydal/migrator.py", line 318, in create_table\n    fake_migrate=fake_migrate\n  File "/home/grcbit/web2py/gluon/packages/dal/pydal/migrator.py", line 451, in migrate_table\n    self.adapter.execute(sub_query)\n  File "/home/grcbit/web2py/gluon/packages/dal/pydal/adapters/__init__.py", line 67, in wrap\n    return f(*args, **kwargs)\n  File "/home/grcbit/web2py/gluon/packages/dal/pydal/adapters/base.py", line 413, in execute\n    rv = self.cursor.execute(command, *args[1:], **kwargs)\nOperationalError: Cannot add a UNIQUE column\n'
p286
s.