(dp1
S'output'
p2
S"<type 'exceptions.ValueError'> No fields to update"
p3
sS'layer'
p4
S'/home/grcbit/web2py/applications/grcdev/controllers/grc_demo_data.py'
p5
sS'code'
p6
S'<code object <module> at 0x7fceb1dc67b0, file "/home/grcbit/web2py/applications/grcdev/controllers/grc_demo_data.py", line 2>'
p7
sS'snapshot'
p8
(dp9
S'exception'
p10
(dp11
S'__getslice__'
p12
S"<method-wrapper '__getslice__' of exceptions.ValueError object>"
p13
sS'__str__'
p14
S"<method-wrapper '__str__' of exceptions.ValueError object>"
p15
sS'__reduce__'
p16
S'<built-in method __reduce__ of exceptions.ValueError object>'
p17
sS'__dict__'
p18
S'{}'
p19
sS'message'
p20
S"'No fields to update'"
p21
sS'__sizeof__'
p22
S'<built-in method __sizeof__ of exceptions.ValueError object>'
p23
sS'__init__'
p24
S"<method-wrapper '__init__' of exceptions.ValueError object>"
p25
sS'__setattr__'
p26
S"<method-wrapper '__setattr__' of exceptions.ValueError object>"
p27
sS'__reduce_ex__'
p28
S'<built-in method __reduce_ex__ of exceptions.ValueError object>'
p29
sS'__new__'
p30
S'<built-in method __new__ of type object>'
p31
sS'__format__'
p32
S'<built-in method __format__ of exceptions.ValueError object>'
p33
sS'__class__'
p34
S"<type 'exceptions.ValueError'>"
p35
sS'__doc__'
p36
S"'Inappropriate argument value (of correct type).'"
p37
sS'__getitem__'
p38
S"<method-wrapper '__getitem__' of exceptions.ValueError object>"
p39
sS'__setstate__'
p40
S'<built-in method __setstate__ of exceptions.ValueError object>'
p41
sS'__getattribute__'
p42
S"<method-wrapper '__getattribute__' of exceptions.ValueError object>"
p43
sS'args'
p44
S"('No fields to update',)"
p45
sS'__subclasshook__'
p46
S'<built-in method __subclasshook__ of type object>'
p47
sS'__unicode__'
p48
S'<built-in method __unicode__ of exceptions.ValueError object>'
p49
sS'__delattr__'
p50
S"<method-wrapper '__delattr__' of exceptions.ValueError object>"
p51
sS'__repr__'
p52
S"<method-wrapper '__repr__' of exceptions.ValueError object>"
p53
sS'__hash__'
p54
S"<method-wrapper '__hash__' of exceptions.ValueError object>"
p55
ssS'evalue'
p56
S'No fields to update'
p57
sS'request'
p58
cgluon.html
XML_unpickle
p59
(S's\x8e^\x00\x00<div><table><tr><td style="font-weight:bold;vertical-align:top;">ajax</td><td style="vertical-align:top;">:</td><td><div>False</div></td></tr><tr><td style="font-weight:bold;vertical-align:top;">application</td><td style="vertical-align:top;">:</td><td><div>grcdev</div></td></tr><tr><td style="font-weight:bold;vertical-align:top;">args</td><td style="vertical-align:top;">:</td><td><div><table></table></div></td></tr><tr><td style="font-weight:bold;vertical-align:top;">cid</td><td style="vertical-align:top;">:</td><td><div>None</div></td></tr><tr><td style="font-weight:bold;vertical-align:top;">client</td><td style="vertical-align:top;">:</td><td><div>177.240.136.131</div></td></tr><tr><td style="font-weight:bold;vertical-align:top;">controller</td><td style="vertical-align:top;">:</td><td><div>grc_demo_data</div></td></tr><tr><td style="font-weight:bold;vertical-align:top;">cookies</td><td style="vertical-align:top;">:</td><td><div><table><tr><td style="font-weight:bold;vertical-align:top;">session_id_admin</td><td style="vertical-align:top;">:</td><td><div>177.240.136.131-52e20a2e-2117-4acf-b257-d3bd792ea2df<table><tr><td style="font-weight:bold;vertical-align:top;">comment</td><td style="vertical-align:top;">:</td><td><div></div></td></tr><tr><td style="font-weight:bold;vertical-align:top;">domain</td><td style="vertical-align:top;">:</td><td><div></div></td></tr><tr><td style="font-weight:bold;vertical-align:top;">expires</td><td style="vertical-align:top;">:</td><td><div></div></td></tr><tr><td style="font-weight:bold;vertical-align:top;">httponly</td><td style="vertical-align:top;">:</td><td><div></div></td></tr><tr><td style="font-weight:bold;vertical-align:top;">max-age</td><td style="vertical-align:top;">:</td><td><div></div></td></tr><tr><td style="font-weight:bold;vertical-align:top;">path</td><td style="vertical-align:top;">:</td><td><div></div></td></tr><tr><td style="font-weight:bold;vertical-align:top;">samesite</td><td style="vertical-align:top;">:</td><td><div></div></td></tr><tr><td style="font-weight:bold;vertical-align:top;">secure</td><td style="vertical-align:top;">:</td><td><div></div></td></tr><tr><td style="font-weight:bold;vertical-align:top;">version</td><td style="vertical-align:top;">:</td><td><div></div></td></tr></table></div></td></tr><tr><td style="font-weight:bold;vertical-align:top;">session_id_grcdev</td><td style="vertical-align:top;">:</td><td><div>177.240.136.131-263183a2-9f96-4b03-b29b-41dfed0a3d6c<table><tr><td style="font-weight:bold;vertical-align:top;">comment</td><td style="vertical-align:top;">:</td><td><div></div></td></tr><tr><td style="font-weight:bold;vertical-align:top;">domain</td><td style="vertical-align:top;">:</td><td><div></div></td></tr><tr><td style="font-weight:bold;vertical-align:top;">expires</td><td style="vertical-align:top;">:</td><td><div></div></td></tr><tr><td style="font-weight:bold;vertical-align:top;">httponly</td><td style="vertical-align:top;">:</td><td><div></div></td></tr><tr><td style="font-weight:bold;vertical-align:top;">max-age</td><td style="vertical-align:top;">:</td><td><div></div></td></tr><tr><td style="font-weight:bold;vertical-align:top;">path</td><td style="vertical-align:top;">:</td><td><div></div></td></tr><tr><td style="font-weight:bold;vertical-align:top;">samesite</td><td style="vertical-align:top;">:</td><td><div></div></td></tr><tr><td style="font-weight:bold;vertical-align:top;">secure</td><td style="vertical-align:top;">:</td><td><div></div></td></tr><tr><td style="font-weight:bold;vertical-align:top;">version</td><td style="vertical-align:top;">:</td><td><div></div></td></tr></table></div></td></tr></table></div></td></tr><tr><td style="font-weight:bold;vertical-align:top;">env</td><td style="vertical-align:top;">:</td><td><div><table><tr><td style="font-weight:bold;vertical-align:top;">CONTENT_LENGTH</td><td style="vertical-align:top;">:</td><td><div></div></td></tr><tr><td style="font-weight:bold;vertical-align:top;">CONTENT_TYPE</td><td style="vertical-align:top;">:</td><td><div></div></td></tr><tr><td style="font-weight:bold;vertical-align:top;">DOCUMENT_ROOT</td><td style="vertical-align:top;">:</td><td><div>/usr/local/openresty/nginx/html</div></td></tr><tr><td style="font-weight:bold;vertical-align:top;">HTTPS</td><td style="vertical-align:top;">:</td><td><div>on</div></td></tr><tr><td style="font-weight:bold;vertical-align:top;">HTTP_ACCEPT</td><td style="vertical-align:top;">:</td><td><div>text/html,application/xhtml+xml,application/xml;q=0.9,image/avif,image/webp,image/apng,*/*;q=0.8,application/signed-exchange;v=b3;q=0.9</div></td></tr><tr><td style="font-weight:bold;vertical-align:top;">HTTP_ACCEPT_ENCODING</td><td style="vertical-align:top;">:</td><td><div>gzip, deflate, br</div></td></tr><tr><td style="font-weight:bold;vertical-align:top;">HTTP_ACCEPT_LANGUAGE</td><td style="vertical-align:top;">:</td><td><div>es-ES,es;q=0.9</div></td></tr><tr><td style="font-weight:bold;vertical-align:top;">HTTP_CACHE_CONTROL</td><td style="vertical-align:top;">:</td><td><div>max-age=0</div></td></tr><tr><td style="font-weight:bold;vertical-align:top;">HTTP_CONNECTION</td><td style="vertical-align:top;">:</td><td><div>close</div></td></tr><tr><td style="font-weight:bold;vertical-align:top;">HTTP_COOKIE</td><td style="vertical-align:top;">:</td><td><div>session_id_admin=177.240.136.131-52e20a2e-2117-4acf-b257-d3bd792ea2df; session_id_grcdev=177.240.136.131-263183a2-9f96-4b03-b29b-41dfed0a3d6c</div></td></tr><tr><td style="font-weight:bold;vertical-align:top;">HTTP_HOST</td><td style="vertical-align:top;">:</td><td><div>w2p-grcbit.pythonanywhere.com</div></td></tr><tr><td style="font-weight:bold;vertical-align:top;">HTTP_REFERER</td><td style="vertical-align:top;">:</td><td><div>https://w2p-grcbit.pythonanywhere.com/grcdev/default/risk_treatment</div></td></tr><tr><td style="font-weight:bold;vertical-align:top;">HTTP_SEC_CH_UA</td><td style="vertical-align:top;">:</td><td><div>&quot;Chromium&quot;;v=&quot;92&quot;, &quot; Not A;Brand&quot;;v=&quot;99&quot;, &quot;Google Chrome&quot;;v=&quot;92&quot;</div></td></tr><tr><td style="font-weight:bold;vertical-align:top;">HTTP_SEC_CH_UA_MOBILE</td><td style="vertical-align:top;">:</td><td><div>?0</div></td></tr><tr><td style="font-weight:bold;vertical-align:top;">HTTP_SEC_FETCH_DEST</td><td style="vertical-align:top;">:</td><td><div>document</div></td></tr><tr><td style="font-weight:bold;vertical-align:top;">HTTP_SEC_FETCH_MODE</td><td style="vertical-align:top;">:</td><td><div>navigate</div></td></tr><tr><td style="font-weight:bold;vertical-align:top;">HTTP_SEC_FETCH_SITE</td><td style="vertical-align:top;">:</td><td><div>same-origin</div></td></tr><tr><td style="font-weight:bold;vertical-align:top;">HTTP_SEC_FETCH_USER</td><td style="vertical-align:top;">:</td><td><div>?1</div></td></tr><tr><td style="font-weight:bold;vertical-align:top;">HTTP_UPGRADE_INSECURE_REQUESTS</td><td style="vertical-align:top;">:</td><td><div>1</div></td></tr><tr><td style="font-weight:bold;vertical-align:top;">HTTP_USER_AGENT</td><td style="vertical-align:top;">:</td><td><div>Mozilla/5.0 (Windows NT 10.0; Win64; x64) AppleWebKit/537.36 (KHTML, like Gecko) Chrome/92.0.4515.107 Safari/537.36</div></td></tr><tr><td style="font-weight:bold;vertical-align:top;">HTTP_X_FORWARDED_FOR</td><td style="vertical-align:top;">:</td><td><div>177.240.136.131</div></td></tr><tr><td style="font-weight:bold;vertical-align:top;">HTTP_X_REAL_IP</td><td style="vertical-align:top;">:</td><td><div>177.240.136.131</div></td></tr><tr><td style="font-weight:bold;vertical-align:top;">PATH_INFO</td><td style="vertical-align:top;">:</td><td><div>/grcdev/grc_demo_data/upload_demo_data</div></td></tr><tr><td style="font-weight:bold;vertical-align:top;">QUERY_STRING</td><td style="vertical-align:top;">:</td><td><div></div></td></tr><tr><td style="font-weight:bold;vertical-align:top;">REMOTE_ADDR</td><td style="vertical-align:top;">:</td><td><div>10.0.0.224</div></td></tr><tr><td style="font-weight:bold;vertical-align:top;">REMOTE_PORT</td><td style="vertical-align:top;">:</td><td><div>48390</div></td></tr><tr><td style="font-weight:bold;vertical-align:top;">REQUEST_METHOD</td><td style="vertical-align:top;">:</td><td><div>GET</div></td></tr><tr><td style="font-weight:bold;vertical-align:top;">REQUEST_URI</td><td style="vertical-align:top;">:</td><td><div>/grcdev/grc_demo_data/upload_demo_data</div></td></tr><tr><td style="font-weight:bold;vertical-align:top;">SCRIPT_NAME</td><td style="vertical-align:top;">:</td><td><div></div></td></tr><tr><td style="font-weight:bold;vertical-align:top;">SERVER_NAME</td><td style="vertical-align:top;">:</td><td><div>w2p-grcbit.pythonanywhere.com</div></td></tr><tr><td style="font-weight:bold;vertical-align:top;">SERVER_PORT</td><td style="vertical-align:top;">:</td><td><div>443</div></td></tr><tr><td style="font-weight:bold;vertical-align:top;">SERVER_PROTOCOL</td><td style="vertical-align:top;">:</td><td><div>HTTP/1.1</div></td></tr><tr><td style="font-weight:bold;vertical-align:top;">app_folders</td><td style="vertical-align:top;">:</td><td><div>set([&#x27;/home/grcbit/web2py/applications/grcdemo&#x27;, &#x27;/home/grcbit/web2py/applications/admin&#x27;, &#x27;/home/grcbit/web2py/applications/grcdev&#x27;, &#x27;/home/grcbit/web2py/applications/grcd&#x27;])</div></td></tr><tr><td style="font-weight:bold;vertical-align:top;">applications_parent</td><td style="vertical-align:top;">:</td><td><div>/home/grcbit/web2py</div></td></tr><tr><td style="font-weight:bold;vertical-align:top;">content_length</td><td style="vertical-align:top;">:</td><td><div></div></td></tr><tr><td style="font-weight:bold;vertical-align:top;">content_type</td><td style="vertical-align:top;">:</td><td><div></div></td></tr><tr><td style="font-weight:bold;vertical-align:top;">db_sessions</td><td style="vertical-align:top;">:</td><td><div>set([])</div></td></tr><tr><td style="font-weight:bold;vertical-align:top;">debugging</td><td style="vertical-align:top;">:</td><td><div>False</div></td></tr><tr><td style="font-weight:bold;vertical-align:top;">document_root</td><td style="vertical-align:top;">:</td><td><div>/usr/local/openresty/nginx/html</div></td></tr><tr><td style="font-weight:bold;vertical-align:top;">gluon_parent</td><td style="vertical-align:top;">:</td><td><div>/home/grcbit/web2py</div></td></tr><tr><td style="font-weight:bold;vertical-align:top;">http_accept</td><td style="vertical-align:top;">:</td><td><div>text/html,application/xhtml+xml,application/xml;q=0.9,image/avif,image/webp,image/apng,*/*;q=0.8,application/signed-exchange;v=b3;q=0.9</div></td></tr><tr><td style="font-weight:bold;vertical-align:top;">http_accept_encoding</td><td style="vertical-align:top;">:</td><td><div>gzip, deflate, br</div></td></tr><tr><td style="font-weight:bold;vertical-align:top;">http_accept_language</td><td style="vertical-align:top;">:</td><td><div>es-ES,es;q=0.9</div></td></tr><tr><td style="font-weight:bold;vertical-align:top;">http_cache_control</td><td style="vertical-align:top;">:</td><td><div>max-age=0</div></td></tr><tr><td style="font-weight:bold;vertical-align:top;">http_connection</td><td style="vertical-align:top;">:</td><td><div>close</div></td></tr><tr><td style="font-weight:bold;vertical-align:top;">http_cookie</td><td style="vertical-align:top;">:</td><td><div>session_id_admin=177.240.136.131-52e20a2e-2117-4acf-b257-d3bd792ea2df; session_id_grcdev=177.240.136.131-263183a2-9f96-4b03-b29b-41dfed0a3d6c</div></td></tr><tr><td style="font-weight:bold;vertical-align:top;">http_host</td><td style="vertical-align:top;">:</td><td><div>w2p-grcbit.pythonanywhere.com</div></td></tr><tr><td style="font-weight:bold;vertical-align:top;">http_referer</td><td style="vertical-align:top;">:</td><td><div>https://w2p-grcbit.pythonanywhere.com/grcdev/default/risk_treatment</div></td></tr><tr><td style="font-weight:bold;vertical-align:top;">http_sec_ch_ua</td><td style="vertical-align:top;">:</td><td><div>&quot;Chromium&quot;;v=&quot;92&quot;, &quot; Not A;Brand&quot;;v=&quot;99&quot;, &quot;Google Chrome&quot;;v=&quot;92&quot;</div></td></tr><tr><td style="font-weight:bold;vertical-align:top;">http_sec_ch_ua_mobile</td><td style="vertical-align:top;">:</td><td><div>?0</div></td></tr><tr><td style="font-weight:bold;vertical-align:top;">http_sec_fetch_dest</td><td style="vertical-align:top;">:</td><td><div>document</div></td></tr><tr><td style="font-weight:bold;vertical-align:top;">http_sec_fetch_mode</td><td style="vertical-align:top;">:</td><td><div>navigate</div></td></tr><tr><td style="font-weight:bold;vertical-align:top;">http_sec_fetch_site</td><td style="vertical-align:top;">:</td><td><div>same-origin</div></td></tr><tr><td style="font-weight:bold;vertical-align:top;">http_sec_fetch_user</td><td style="vertical-align:top;">:</td><td><div>?1</div></td></tr><tr><td style="font-weight:bold;vertical-align:top;">http_upgrade_insecure_requests</td><td style="vertical-align:top;">:</td><td><div>1</div></td></tr><tr><td style="font-weight:bold;vertical-align:top;">http_user_agent</td><td style="vertical-align:top;">:</td><td><div>Mozilla/5.0 (Windows NT 10.0; Win64; x64) AppleWebKit/537.36 (KHTML, like Gecko) Chrome/92.0.4515.107 Safari/537.36</div></td></tr><tr><td style="font-weight:bold;vertical-align:top;">http_x_forwarded_for</td><td style="vertical-align:top;">:</td><td><div>177.240.136.131</div></td></tr><tr><td style="font-weight:bold;vertical-align:top;">http_x_real_ip</td><td style="vertical-align:top;">:</td><td><div>177.240.136.131</div></td></tr><tr><td style="font-weight:bold;vertical-align:top;">https</td><td style="vertical-align:top;">:</td><td><div>on</div></td></tr><tr><td style="font-weight:bold;vertical-align:top;">is_jython</td><td style="vertical-align:top;">:</td><td><div>False</div></td></tr><tr><td style="font-weight:bold;vertical-align:top;">is_py2</td><td style="vertical-align:top;">:</td><td><div>True</div></td></tr><tr><td style="font-weight:bold;vertical-align:top;">is_pypy</td><td style="vertical-align:top;">:</td><td><div>False</div></td></tr><tr><td style="font-weight:bold;vertical-align:top;">is_source</td><td style="vertical-align:top;">:</td><td><div>True</div></td></tr><tr><td style="font-weight:bold;vertical-align:top;">local_hosts</td><td style="vertical-align:top;">:</td><td><div><table><tr><td><div>35.173.69.207</div></td></tr><tr><td><div>w2p-grcbit.pythonanywhere.com</div></td></tr><tr><td><div>::ffff:127.0.0.1</div></td></tr><tr><td><div>::1</div></td></tr><tr><td><div>blue-liveweb9</div></td></tr><tr><td><div>localhost</div></td></tr><tr><td><div>127.0.0.1</div></td></tr></table></div></td></tr><tr><td style="font-weight:bold;vertical-align:top;">path_info</td><td style="vertical-align:top;">:</td><td><div>/grcdev/grc_demo_data/upload_demo_data</div></td></tr><tr><td style="font-weight:bold;vertical-align:top;">query_string</td><td style="vertical-align:top;">:</td><td><div></div></td></tr><tr><td style="font-weight:bold;vertical-align:top;">remote_addr</td><td style="vertical-align:top;">:</td><td><div>10.0.0.224</div></td></tr><tr><td style="font-weight:bold;vertical-align:top;">remote_port</td><td style="vertical-align:top;">:</td><td><div>48390</div></td></tr><tr><td style="font-weight:bold;vertical-align:top;">request_method</td><td style="vertical-align:top;">:</td><td><div>GET</div></td></tr><tr><td style="font-weight:bold;vertical-align:top;">request_uri</td><td style="vertical-align:top;">:</td><td><div>/grcdev/grc_demo_data/upload_demo_data</div></td></tr><tr><td style="font-weight:bold;vertical-align:top;">script_name</td><td style="vertical-align:top;">:</td><td><div></div></td></tr><tr><td style="font-weight:bold;vertical-align:top;">server_name</td><td style="vertical-align:top;">:</td><td><div>w2p-grcbit.pythonanywhere.com</div></td></tr><tr><td style="font-weight:bold;vertical-align:top;">server_port</td><td style="vertical-align:top;">:</td><td><div>443</div></td></tr><tr><td style="font-weight:bold;vertical-align:top;">server_protocol</td><td style="vertical-align:top;">:</td><td><div>HTTP/1.1</div></td></tr><tr><td style="font-weight:bold;vertical-align:top;">uwsgi.node</td><td style="vertical-align:top;">:</td><td><div>blue-liveweb9</div></td></tr><tr><td style="font-weight:bold;vertical-align:top;">uwsgi.version</td><td style="vertical-align:top;">:</td><td><div>2.0.17.1</div></td></tr><tr><td style="font-weight:bold;vertical-align:top;">uwsgi_node</td><td style="vertical-align:top;">:</td><td><div>blue-liveweb9</div></td></tr><tr><td style="font-weight:bold;vertical-align:top;">uwsgi_version</td><td style="vertical-align:top;">:</td><td><div>2.0.17.1</div></td></tr><tr><td style="font-weight:bold;vertical-align:top;">web2py_path</td><td style="vertical-align:top;">:</td><td><div>/home/grcbit/web2py</div></td></tr><tr><td style="font-weight:bold;vertical-align:top;">web2py_version</td><td style="vertical-align:top;">:</td><td><div>2.18.5-stable+timestamp.2019.04.08.04.22.03</div></td></tr><tr><td style="font-weight:bold;vertical-align:top;">wsgi.errors</td><td style="vertical-align:top;">:</td><td><div>&lt;uwsgi_file__bin_user_wsgi_wrapper.ErrorLogFile object at 0x7fceb8be2710&gt;</div></td></tr><tr><td style="font-weight:bold;vertical-align:top;">wsgi.file_wrapper</td><td style="vertical-align:top;">:</td><td><div>&lt;built-in function uwsgi_sendfile&gt;</div></td></tr><tr><td style="font-weight:bold;vertical-align:top;">wsgi.input</td><td style="vertical-align:top;">:</td><td><div>&lt;uwsgi._Input object at 0x7fceb1cca198&gt;</div></td></tr><tr><td style="font-weight:bold;vertical-align:top;">wsgi.multiprocess</td><td style="vertical-align:top;">:</td><td><div>True</div></td></tr><tr><td style="font-weight:bold;vertical-align:top;">wsgi.multithread</td><td style="vertical-align:top;">:</td><td><div>False</div></td></tr><tr><td style="font-weight:bold;vertical-align:top;">wsgi.run_once</td><td style="vertical-align:top;">:</td><td><div>False</div></td></tr><tr><td style="font-weight:bold;vertical-align:top;">wsgi.url_scheme</td><td style="vertical-align:top;">:</td><td><div>https</div></td></tr><tr><td style="font-weight:bold;vertical-align:top;">wsgi.version</td><td style="vertical-align:top;">:</td><td><div><table><tr><td><div>1</div></td></tr><tr><td><div>0</div></td></tr></table></div></td></tr><tr><td style="font-weight:bold;vertical-align:top;">wsgi_errors</td><td style="vertical-align:top;">:</td><td><div>&lt;uwsgi_file__bin_user_wsgi_wrapper.ErrorLogFile object at 0x7fceb8be2710&gt;</div></td></tr><tr><td style="font-weight:bold;vertical-align:top;">wsgi_file_wrapper</td><td style="vertical-align:top;">:</td><td><div>&lt;built-in function uwsgi_sendfile&gt;</div></td></tr><tr><td style="font-weight:bold;vertical-align:top;">wsgi_input</td><td style="vertical-align:top;">:</td><td><div>&lt;uwsgi._Input object at 0x7fceb1cca198&gt;</div></td></tr><tr><td style="font-weight:bold;vertical-align:top;">wsgi_multiprocess</td><td style="vertical-align:top;">:</td><td><div>True</div></td></tr><tr><td style="font-weight:bold;vertical-align:top;">wsgi_multithread</td><td style="vertical-align:top;">:</td><td><div>False</div></td></tr><tr><td style="font-weight:bold;vertical-align:top;">wsgi_run_once</td><td style="vertical-align:top;">:</td><td><div>False</div></td></tr><tr><td style="font-weight:bold;vertical-align:top;">wsgi_url_scheme</td><td style="vertical-align:top;">:</td><td><div>https</div></td></tr><tr><td style="font-weight:bold;vertical-align:top;">wsgi_version</td><td style="vertical-align:top;">:</td><td><div><table><tr><td><div>1</div></td></tr><tr><td><div>0</div></td></tr></table></div></td></tr></table></div></td></tr><tr><td style="font-weight:bold;vertical-align:top;">extension</td><td style="vertical-align:top;">:</td><td><div>html</div></td></tr><tr><td style="font-weight:bold;vertical-align:top;">folder</td><td style="vertical-align:top;">:</td><td><div>/home/grcbit/web2py/applications/grcdev</div></td></tr><tr><td style="font-weight:bold;vertical-align:top;">function</td><td style="vertical-align:top;">:</td><td><div>upload_demo_data</div></td></tr><tr><td style="font-weight:bold;vertical-align:top;">global_settings</td><td style="vertical-align:top;">:</td><td><div><table><tr><td style="font-weight:bold;vertical-align:top;">app_folders</td><td style="vertical-align:top;">:</td><td><div>set([&#x27;/home/grcbit/web2py/applications/grcdemo&#x27;, &#x27;/home/grcbit/web2py/applications/admin&#x27;, &#x27;/home/grcbit/web2py/applications/grcdev&#x27;, &#x27;/home/grcbit/web2py/applications/grcd&#x27;])</div></td></tr><tr><td style="font-weight:bold;vertical-align:top;">applications_parent</td><td style="vertical-align:top;">:</td><td><div>/home/grcbit/web2py</div></td></tr><tr><td style="font-weight:bold;vertical-align:top;">db_sessions</td><td style="vertical-align:top;">:</td><td><div>set([])</div></td></tr><tr><td style="font-weight:bold;vertical-align:top;">debugging</td><td style="vertical-align:top;">:</td><td><div>False</div></td></tr><tr><td style="font-weight:bold;vertical-align:top;">gluon_parent</td><td style="vertical-align:top;">:</td><td><div>/home/grcbit/web2py</div></td></tr><tr><td style="font-weight:bold;vertical-align:top;">is_jython</td><td style="vertical-align:top;">:</td><td><div>False</div></td></tr><tr><td style="font-weight:bold;vertical-align:top;">is_py2</td><td style="vertical-align:top;">:</td><td><div>True</div></td></tr><tr><td style="font-weight:bold;vertical-align:top;">is_pypy</td><td style="vertical-align:top;">:</td><td><div>False</div></td></tr><tr><td style="font-weight:bold;vertical-align:top;">is_source</td><td style="vertical-align:top;">:</td><td><div>True</div></td></tr><tr><td style="font-weight:bold;vertical-align:top;">local_hosts</td><td style="vertical-align:top;">:</td><td><div><table><tr><td><div>35.173.69.207</div></td></tr><tr><td><div>w2p-grcbit.pythonanywhere.com</div></td></tr><tr><td><div>::ffff:127.0.0.1</div></td></tr><tr><td><div>::1</div></td></tr><tr><td><div>blue-liveweb9</div></td></tr><tr><td><div>localhost</div></td></tr><tr><td><div>127.0.0.1</div></td></tr></table></div></td></tr><tr><td style="font-weight:bold;vertical-align:top;">web2py_version</td><td style="vertical-align:top;">:</td><td><div>2.18.5-stable+timestamp.2019.04.08.04.22.03</div></td></tr></table></div></td></tr><tr><td style="font-weight:bold;vertical-align:top;">is_https</td><td style="vertical-align:top;">:</td><td><div>True</div></td></tr><tr><td style="font-weight:bold;vertical-align:top;">is_local</td><td style="vertical-align:top;">:</td><td><div>False</div></td></tr><tr><td style="font-weight:bold;vertical-align:top;">is_restful</td><td style="vertical-align:top;">:</td><td><div>False</div></td></tr><tr><td style="font-weight:bold;vertical-align:top;">is_scheduler</td><td style="vertical-align:top;">:</td><td><div>False</div></td></tr><tr><td style="font-weight:bold;vertical-align:top;">is_shell</td><td style="vertical-align:top;">:</td><td><div>False</div></td></tr><tr><td style="font-weight:bold;vertical-align:top;">method</td><td style="vertical-align:top;">:</td><td><div>GET</div></td></tr><tr><td style="font-weight:bold;vertical-align:top;">now</td><td style="vertical-align:top;">:</td><td><div>datetime.datetime(2021, 7, 28, 4, 11, 21, 665582)</div></td></tr><tr><td style="font-weight:bold;vertical-align:top;">raw_args</td><td style="vertical-align:top;">:</td><td><div></div></td></tr><tr><td style="font-weight:bold;vertical-align:top;">raw_extension</td><td style="vertical-align:top;">:</td><td><div>None</div></td></tr><tr><td style="font-weight:bold;vertical-align:top;">url</td><td style="vertical-align:top;">:</td><td><div>/grcdev/grc_demo_data/upload_demo_data</div></td></tr><tr><td style="font-weight:bold;vertical-align:top;">utcnow</td><td style="vertical-align:top;">:</td><td><div>datetime.datetime(2021, 7, 28, 4, 11, 21, 665595)</div></td></tr><tr><td style="font-weight:bold;vertical-align:top;">wsgi</td><td style="vertical-align:top;">:</td><td><div>&lt;gluon.main.LazyWSGI object at 0x7fceb2042950&gt;</div></td></tr></table></div>'
tRp60
sS'frames'
p61
(lp62
(dp63
S'file'
p64
S'/home/grcbit/web2py/gluon/restricted.py'
p65
sS'dump'
p66
(dp67
S'environment'
p68
S"{'A': <class 'gluon.html.A'>, 'ANY_OF': <class 'pydal.validators.ANY_OF'>, 'ASSIGNJS': <function ASSIGNJS>, 'AppConfig': <function AppConfig>, 'Auth': <class 'gluon.tools.Auth'>, 'B': <class 'gluon.html.B'>, 'BEAUTIFY': <class 'gluon.html.BEAUTIFY'>, 'BODY': <class 'gluon.html.BODY'>, 'BR': <class 'gluon.html.BR'>, 'BUTTON': <class 'gluon.html.BUTTON'>, ...}"
p69
sS'ccode'
p70
S'<code object <module> at 0x7fceb1dc67b0, file "/...ons/grcdev/controllers/grc_demo_data.py", line 2>'
p71
ssS'lnum'
p72
I219
sS'lines'
p73
(dp74
I214
S'    if environment is None:'
p75
sI215
S'        environment = {}'
p76
sI216
S"    environment['__file__'] = layer"
p77
sI217
S"    environment['__name__'] = '__restricted__'"
p78
sI218
S'    try:'
p79
sI219
S'        exec(ccode, environment)'
p80
sI220
S'    except HTTP:'
p81
sI221
S'        raise'
p82
sI222
S'    except RestrictedError:'
p83
sI223
S'        # do not encapsulate (obfuscate) the original RestrictedError'
p84
ssS'call'
p85
S'(ccode=<code object <module> at 0x7fceb1dc67b0, file "/...ons/grcdev/controllers/grc_demo_data.py", line 2>, environment={\'A\': <class \'gluon.html.A\'>, \'ANY_OF\': <class \'pydal.validators.ANY_OF\'>, \'ASSIGNJS\': <function ASSIGNJS>, \'AppConfig\': <function AppConfig>, \'Auth\': <class \'gluon.tools.Auth\'>, \'B\': <class \'gluon.html.B\'>, \'BEAUTIFY\': <class \'gluon.html.BEAUTIFY\'>, \'BODY\': <class \'gluon.html.BODY\'>, \'BR\': <class \'gluon.html.BR\'>, \'BUTTON\': <class \'gluon.html.BUTTON\'>, ...}, layer=\'/home/grcbit/web2py/applications/grcdev/controllers/grc_demo_data.py\', scode=<code object <module> at 0x7fceb1dc67b0, file "/...ons/grcdev/controllers/grc_demo_data.py", line 2>)'
p86
sS'func'
p87
S'restricted'
p88
sa(dp89
g64
S'/home/grcbit/web2py/applications/grcdev/controllers/grc_demo_data.py'
p90
sg66
(dp91
sg72
I63
sg73
(dp92
I52
S'    db.risk_classification.update_or_insert((db.risk_classification.id==5), id=5, Nombre="TI (IT)", Descripcion="Riesgos relacionados a elementos de TI que procesan, almacenan o transmiten informaci\xc3\xb3n sensible, o que soportan procesos cr\xc3\xadticos en la organizaci\xc3\xb3n. (Risks that are related to the IT elements that process, store or transmit sensible information or that support critical processes of the Company.)", AprobacionJefeRiesgo=\'T\')'
p93
sI53
S'    #----------------------'
p94
sI54
S'    #Risk Treatment'
p95
sI55
S'    #----------------------'
p96
sI56
S'    db.risk_treatment.update_or_insert((db.risk_treatment.id==1), id=1, Nombre="Mitigar (Mitigate)", Descripcion="Se adoptan medidas para reducir la probabilidad o el impacto del riesgo o ambos; por lo general, puede conllevar cualquiera de las m\xc3\xbaltiples decisiones de negocio que se adoptan en el d\xc3\xada a d\xc3\xada de una organizaci\xc3\xb3n. (Measures taken to reduce the probability or occurrence of the risk as well to reduce its impact in case of occurence. In general, it involves the multiple business decisions that are made daily in an organization.)", Color="Rosa (Pink)", AprobacionJefeRiesgo=\'T\')'
p97
sI57
S'    db.risk_treatment.update_or_insert((db.risk_treatment.id==2), id=2, Nombre="Aceptar (Accept)", Descripcion="No se adopta ninguna medida que afecte a la probabilidad o al impacto del riesgo. (No measure is taken to decrease the probability or impact of the risk.)", Color="Purpura (Purple)", AprobacionJefeRiesgo=\'T\')'
p98
sI58
S'    db.risk_treatment.update_or_insert((db.risk_treatment.id==3), id=3, Nombre="Evitar (Avoid)", Descripcion="Se abandonan las actividades que den lugar al riesgo; esto puede conllevar que se abandone una l\xc3\xadnea de producci\xc3\xb3n, que se reduzca el grado de expansi\xc3\xb3n en un nuevo mercado geogr\xc3\xa1fico o que se venda una divisi\xc3\xb3n. (The activites that give rise to the risk are abandoned; which can lead to the abandonment of a production line, a limited expansion in a new geographic market or the sale of a business segment.)", Color="Gris (Gray)", AprobacionJefeRiesgo=\'T\')'
p99
sI59
S'    db.risk_treatment.update_or_insert((db.risk_treatment.id==4), id=4, Nombre="Compartir (Transfer)", Descripcion="Se reduce la probabilidad o el impacto al riesgo transfiriendo o compartiendo de cualquier otra manera una parte del riesgo; las t\xc3\xa9cnicas que se utilizan m\xc3\xa1s habitualmente incluyen la suscripci\xc3\xb3n de seguros, el establecimiento de negocios, la cobertura de transacciones o la externalizaci\xc3\xb3n de una actividad. (The probability or impact of the risk is reduced by handing it over or shared with a third party, such as, the suscription of insurances or outsourcing an activitiy.)", Color="Salmon (Salmon)", AprobacionJefeRiesgo=\'T\')'
p100
sI60
S''
sI61
S'    return 0'
p101
ssg85
S'()'
p102
sg87
S'<module>'
p103
sa(dp104
g64
S'/home/grcbit/web2py/gluon/globals.py'
p105
sg66
(dp106
S'self'
p107
S'undefined'
p108
sS'f'
S'<function upload_demo_data>'
p109
ssg72
I421
sg73
(dp110
I416
S"        self.flash = ''            # used by the default view layout"
p111
sI417
S'        self.meta = Storage()      # used by web2py_ajax.html'
p112
sI418
S'        self.menu = []             # used by the default view layout'
p113
sI419
S'        self.files = []            # used by web2py_ajax.html'
p114
sI420
S'        self._vars = None'
p115
sI421
S'        self._caller = lambda f: f()'
p116
sI422
S'        self._view_environment = None'
p117
sI423
S'        self._custom_commit = None'
p118
sI424
S'        self._custom_rollback = None'
p119
sI425
S"        self.generic_patterns = ['*']"
p120
ssg85
S'(f=<function upload_demo_data>)'
p121
sg87
S'<lambda>'
p122
sa(dp123
g64
S'/home/grcbit/web2py/applications/grcdev/controllers/grc_demo_data.py'
p124
sg66
(dp125
S'builtinid'
p126
S'<built-in function id>'
p127
sS'Descripcion'
p128
g108
sS'db.risk_classification.update_or_insert'
p129
S'<bound method Table.update_or_insert of <Table r..., risk_analyst_approval, risk_manager_approval)>>'
p130
sS'global db'
p131
S'<DAL uri="sqlite://storage.sqlite">'
p132
sS'Nombre'
p133
g108
sS'AprobacionJefeRiesgo'
p134
g108
sS'db.risk_classification.id'
p135
S'<pydal.objects.Field object>'
p136
sS'db.risk_classification'
p137
S'<Table risk_classification (id, name, descriptio...g, risk_analyst_approval, risk_manager_approval)>'
p138
ssg72
I48
sg73
(dp139
I43
S'    db.auth_membership.update_or_insert((db.auth_membership.id==10),id=10, user_id=10, group_id=10)'
p140
sI44
S'    db.auth_membership.update_or_insert((db.auth_membership.id==11),id=11, user_id=11, group_id=11)'
p141
sI45
S'    #--------------------'
p142
sI46
S'    #Risk Classification'
p143
sI47
S'    #--------------------'
p144
sI48
S'    db.risk_classification.update_or_insert((db.risk_classification.id==1), id=1, Nombre="Operacional (Operational)", Descripcion="Riesgos que afectan la habilidad de la organizaci\xc3\xb3n para lograr el plan estrat\xc3\xa9gico. El riesgo operacional es el tipo de riesgo que puede provocar p\xc3\xa9rdidas a la Organizacion debido a errores humanos, procesos internos inadecuados o defectuosos. (Risks that affect the ability of the organization to achieve its strategic plans. They can provoke losses to the Company due to human errors, inadequate or defective internal processes, failures in the systems, etc.)", AprobacionJefeRiesgo=\'T\')'
p145
sI49
S'    db.risk_classification.update_or_insert((db.risk_classification.id==2), id=2, Nombre="Estrat\xc3\xa9gico (Strategic)", Descripcion="El riesgo estrat\xc3\xa9gico deriva de la aplicaci\xc3\xb3n indebida de las decisiones, o la falta de capacidad de respuesta a los cambios de la industria. Este riesgo es una funci\xc3\xb3n de la compatibilidad de los objetivos estrat\xc3\xa9gicos de la Organizacion, las estrategias desarrolladas para alcanzar dichos objetivos, los recursos utilizados, as\xc3\xad como la calidad de su ejecuci\xc3\xb3n, ejemplo: cambios econ\xc3\xb3micos, tecnol\xc3\xb3gicos, competitivos y regulatorios. La alta gerencia C-suite identifica los riesgos m\xc3\xa1s importantes a trav\xc3\xa9s del proceso de planificaci\xc3\xb3n y obtiene aprobaci\xc3\xb3n de la Junta. (Risks derived from incorrect decision-making and/or from the inability to response to the changes happening in the industry. It determines the compatibility of the strategic objectives of the Company, the developed strategies to reach said objectives, the used resources and the quality of their Execution, examples: economic, technological, competitive and regulatory changes. The General Management C-suite identifies the most important risks which are then approved by the Committee.)", AprobacionJefeRiesgo=\'T\')'
p146
sI50
S'    db.risk_classification.update_or_insert((db.risk_classification.id==3), id=3, Nombre="Cumplimiento (Compliance)", Descripcion="Es el riesgo del cumplimiento de las disposiciones legales, normas, organismos, instituciones reguladoras, est\xc3\xa1ndares adoptados por la organizaci\xc3\xb3n y c\xc3\xb3digos de conducta aplicables a las actividades de la Organizaci\xc3\xb3n, que puede conllevar sanciones y/o deterioros de reputaci\xc3\xb3n, provocando en consecuencia un impacto adverso en los resultados, y/o en el capital, y/o en las expectativas de desarrollo de los negocios de la Organizaci\xc3\xb3n. (The risk of Infringement to the current legal dispositions, norms, organisms, regulatory institutions, adopted standards by the Company and codes of conduct applicable to the activities of the Company that can lead to sanctions and/or reputational damage that subsequently impacts the results, capital, expectations of the development of the business.)", AprobacionJefeRiesgo=\'T\')'
p147
sI51
S'    db.risk_classification.update_or_insert((db.risk_classification.id==4), id=4, Nombre="Financiero (Financial)", Descripcion="El riesgo financiero es la probabilidad de que un evento adverso o alguna fluctuaci\xc3\xb3n financiera reporte consecuencias negativas en una empresa, ejemplo: informaci\xc3\xb3n financiera, valoraci\xc3\xb3n, cobertura, apalancamiento, deuda, riesgos de mercado y liquidez, y riesgos de cr\xc3\xa9dito en instituciones financieras. (The risk of an inopportune event or financial fluctuation that bring negative consequences to the Company, for example: valuation, market risks, credits, liquidity, leverage, debts, etc.)", AprobacionJefeRiesgo=\'T\')'
p148
sI52
S'    db.risk_classification.update_or_insert((db.risk_classification.id==5), id=5, Nombre="TI (IT)", Descripcion="Riesgos relacionados a elementos de TI que procesan, almacenan o transmiten informaci\xc3\xb3n sensible, o que soportan procesos cr\xc3\xadticos en la organizaci\xc3\xb3n. (Risks that are related to the IT elements that process, store or transmit sensible information or that support critical processes of the Company.)", AprobacionJefeRiesgo=\'T\')'
p149
ssg85
S'()'
p150
sg87
S'upload_demo_data'
p151
sa(dp152
g64
S'/home/grcbit/web2py/gluon/packages/dal/pydal/objects.py'
p153
sg66
(dp154
S'record.update_record'
p155
S'<pydal.helpers.classes.RecordUpdater object>'
p156
sS'record'
p157
S"<Row {'description': 'Risk IT', 'risk_analyst_ap...manager_approval': True, 'id': 1L, 'name': 'IT'}>"
p158
sS'values'
p159
S"{'AprobacionJefeRiesgo': 'T', 'Descripcion': 'Riesgos que afectan la habilidad de la organizac...nternal processes, failures in the systems, etc.)', 'Nombre': 'Operacional (Operational)', 'id': 1}"
p160
ssg72
I826
sg73
(dp161
I821
S'        elif isinstance(_key, dict):'
p162
sI822
S'            record = self(**_key)'
p163
sI823
S'        else:'
p164
sI824
S'            record = self(_key)'
p165
sI825
S'        if record:'
p166
sI826
S'            record.update_record(**values)'
p167
sI827
S'            newid = None'
p168
sI828
S'        else:'
p169
sI829
S'            newid = self.insert(**values)'
p170
sI830
S'        return newid'
p171
ssg85
S'(self=<Table risk_classification (id, name, descriptio...g, risk_analyst_approval, risk_manager_approval)>, _key=<Query ("risk_classification"."id" = 1)>, **values={\'AprobacionJefeRiesgo\': \'T\', \'Descripcion\': \'Riesgos que afectan la habilidad de la organizac...nternal processes, failures in the systems, etc.)\', \'Nombre\': \'Operacional (Operational)\', \'id\': 1})'
p172
sg87
S'update_or_insert'
p173
sa(dp174
g64
S'/home/grcbit/web2py/gluon/packages/dal/pydal/helpers/classes.py'
p175
sg66
(dp176
S'newfields'
p177
g19
ssg72
I363
sg73
(dp178
I358
S'        newfields = fields or dict(colset)'
p179
sI359
S'        for fieldname in list(newfields.keys()):'
p180
sI360
S"            if fieldname not in table.fields or table[fieldname].type == 'id':"
p181
sI361
S'                del newfields[fieldname]'
p182
sI362
S'        table._db(table._id == id, ignore_common_filters=True).update('
p183
sI363
S'            **newfields'
p184
sI364
S'        )'
p185
sI365
S'        colset.update(newfields)'
p186
sI366
S'        return colset'
p187
sI367
S''
ssg85
S'(self=<pydal.helpers.classes.RecordUpdater object>, **fields={})'
p188
sg87
S'__call__'
p189
sa(dp190
g64
S'/home/grcbit/web2py/gluon/packages/dal/pydal/objects.py'
p191
sg66
(dp192
S'builtinValueError'
p193
S"<type 'exceptions.ValueError'>"
p194
ssg72
I2431
sg73
(dp195
I2432
S'        if any(f(self, row) for f in table._before_update):'
p196
sI2433
S'            return 0'
p197
sI2434
S'        ret = db._adapter.update(table, self.query, row.op_values())'
p198
sI2435
S'        ret and [f(self, row) for f in table._after_update]'
p199
sI2426
S'    def update(self, **update_fields):'
p200
sI2427
S'        db = self.db'
p201
sI2428
S'        table = db._adapter.get_table(self.query)'
p202
sI2429
S'        row = table._fields_and_values_for_update(update_fields)'
p203
sI2430
S'        if not row._values:'
p204
sI2431
S'            raise ValueError("No fields to update")'
p205
ssg85
S'(self=<Set ("risk_classification"."id" = 1)>, **update_fields={})'
p206
sg87
S'update'
p207
sasS'pyver'
p208
S'Python 2.7.12: /usr/local/bin/uwsgi (prefix: /usr)'
p209
sS'session'
p210
g59
(S's\x02\n\x00\x00<div><table><tr><td style="font-weight:bold;vertical-align:top;">auth</td><td style="vertical-align:top;">:</td><td><div><table><tr><td style="font-weight:bold;vertical-align:top;">expiration</td><td style="vertical-align:top;">:</td><td><div>3600</div></td></tr><tr><td style="font-weight:bold;vertical-align:top;">hmac_key</td><td style="vertical-align:top;">:</td><td><div>28f7eefb-dbb1-4fcb-83f9-217a3137621d</div></td></tr><tr><td style="font-weight:bold;vertical-align:top;">last_visit</td><td style="vertical-align:top;">:</td><td><div>datetime.datetime(2021, 7, 28, 4, 8, 46, 655971)</div></td></tr><tr><td style="font-weight:bold;vertical-align:top;">remember_me</td><td style="vertical-align:top;">:</td><td><div>False</div></td></tr><tr><td style="font-weight:bold;vertical-align:top;">user</td><td style="vertical-align:top;">:</td><td><div><table><tr><td style="font-weight:bold;vertical-align:top;">email</td><td style="vertical-align:top;">:</td><td><div>admin@mail.com</div></td></tr><tr><td style="font-weight:bold;vertical-align:top;">first_name</td><td style="vertical-align:top;">:</td><td><div>admin</div></td></tr><tr><td style="font-weight:bold;vertical-align:top;">id</td><td style="vertical-align:top;">:</td><td><div>1L</div></td></tr><tr><td style="font-weight:bold;vertical-align:top;">last_name</td><td style="vertical-align:top;">:</td><td><div>admin</div></td></tr><tr><td style="font-weight:bold;vertical-align:top;">registration_id</td><td style="vertical-align:top;">:</td><td><div></div></td></tr><tr><td style="font-weight:bold;vertical-align:top;">registration_key</td><td style="vertical-align:top;">:</td><td><div></div></td></tr><tr><td style="font-weight:bold;vertical-align:top;">reset_password_key</td><td style="vertical-align:top;">:</td><td><div></div></td></tr></table></div></td></tr><tr><td style="font-weight:bold;vertical-align:top;">user_groups</td><td style="vertical-align:top;">:</td><td><div><table><tr><td style="font-weight:bold;vertical-align:top;">1</td><td style="vertical-align:top;">:</td><td><div>admin</div></td></tr></table></div></td></tr></table></div></td></tr><tr><td style="font-weight:bold;vertical-align:top;">flash</td><td style="vertical-align:top;">:</td><td><div>None</div></td></tr><tr><td style="font-weight:bold;vertical-align:top;">last_orderby</td><td style="vertical-align:top;">:</td><td><div>None</div></td></tr><tr><td style="font-weight:bold;vertical-align:top;">last_query</td><td style="vertical-align:top;">:</td><td><div>db.auth_user.id&gt;0</div></td></tr></table></div>'
tRp211
sS'etype'
p212
S"<type 'exceptions.ValueError'>"
p213
sS'date'
p214
S'Wed Jul 28 04:11:21 2021'
p215
sS'response'
p216
g59
(S's\x8f$\x00\x00<div><table><tr><td style="font-weight:bold;vertical-align:top;">body</td><td style="vertical-align:top;">:</td><td><div>&lt;cStringIO.StringO object at 0x7fceb22ff0a0&gt;</div></td></tr><tr><td style="font-weight:bold;vertical-align:top;">cookies</td><td style="vertical-align:top;">:</td><td><div><table><tr><td style="font-weight:bold;vertical-align:top;">session_id_grcdev</td><td style="vertical-align:top;">:</td><td><div>177.240.136.131-263183a2-9f96-4b03-b29b-41dfed0a3d6c<table><tr><td style="font-weight:bold;vertical-align:top;">comment</td><td style="vertical-align:top;">:</td><td><div></div></td></tr><tr><td style="font-weight:bold;vertical-align:top;">domain</td><td style="vertical-align:top;">:</td><td><div></div></td></tr><tr><td style="font-weight:bold;vertical-align:top;">expires</td><td style="vertical-align:top;">:</td><td><div></div></td></tr><tr><td style="font-weight:bold;vertical-align:top;">httponly</td><td style="vertical-align:top;">:</td><td><div></div></td></tr><tr><td style="font-weight:bold;vertical-align:top;">max-age</td><td style="vertical-align:top;">:</td><td><div></div></td></tr><tr><td style="font-weight:bold;vertical-align:top;">path</td><td style="vertical-align:top;">:</td><td><div>/</div></td></tr><tr><td style="font-weight:bold;vertical-align:top;">samesite</td><td style="vertical-align:top;">:</td><td><div></div></td></tr><tr><td style="font-weight:bold;vertical-align:top;">secure</td><td style="vertical-align:top;">:</td><td><div></div></td></tr><tr><td style="font-weight:bold;vertical-align:top;">version</td><td style="vertical-align:top;">:</td><td><div></div></td></tr></table></div></td></tr></table></div></td></tr><tr><td style="font-weight:bold;vertical-align:top;">delimiters</td><td style="vertical-align:top;">:</td><td><div><table><tr><td><div>{{</div></td></tr><tr><td><div>}}</div></td></tr></table></div></td></tr><tr><td style="font-weight:bold;vertical-align:top;">files</td><td style="vertical-align:top;">:</td><td><div><table></table></div></td></tr><tr><td style="font-weight:bold;vertical-align:top;">flash</td><td style="vertical-align:top;">:</td><td><div></div></td></tr><tr><td style="font-weight:bold;vertical-align:top;">form_label_separator</td><td style="vertical-align:top;">:</td><td><div></div></td></tr><tr><td style="font-weight:bold;vertical-align:top;">formstyle</td><td style="vertical-align:top;">:</td><td><div>bootstrap4_inline</div></td></tr><tr><td style="font-weight:bold;vertical-align:top;">generic_patterns</td><td style="vertical-align:top;">:</td><td><div><table></table></div></td></tr><tr><td style="font-weight:bold;vertical-align:top;">google_analytics_id</td><td style="vertical-align:top;">:</td><td><div>None</div></td></tr><tr><td style="font-weight:bold;vertical-align:top;">headers</td><td style="vertical-align:top;">:</td><td><div><table><tr><td style="font-weight:bold;vertical-align:top;">X-Powered-By</td><td style="vertical-align:top;">:</td><td><div>web2py</div></td></tr></table></div></td></tr><tr><td style="font-weight:bold;vertical-align:top;">menu</td><td style="vertical-align:top;">:</td><td><div><table><tr><td><div><table><tr><td><div>Inicio</div></td></tr><tr><td><div>False</div></td></tr><tr><td><div>/grcdev/default/index</div></td></tr><tr><td><div><table></table></div></td></tr></table></div></td></tr><tr><td><div><table><tr><td><div>Inventory</div></td></tr><tr><td><div>False</div></td></tr><tr><td><div>#</div></td></tr><tr><td><div><table><tr><td><div><table><tr><td><div>Risk Classification</div></td></tr><tr><td><div>False</div></td></tr><tr><td><div>/grcdev/default/risk_classification</div></td></tr></table></div></td></tr><tr><td><div><table><tr><td><div>Risk Treatment</div></td></tr><tr><td><div>False</div></td></tr><tr><td><div>/grcdev/default/risk_treatment</div></td></tr></table></div></td></tr><tr><td><div><table><tr><td><div>Risk Factor Group</div></td></tr><tr><td><div>False</div></td></tr><tr><td><div>/grcdev/default/GrupoFactorRiesgo</div></td></tr></table></div></td></tr><tr><td><div><table><tr><td><div>Control Clasification</div></td></tr><tr><td><div>False</div></td></tr><tr><td><div>/grcdev/default/ClasificacionControl</div></td></tr></table></div></td></tr><tr><td><div><table><tr><td><div>Control Type</div></td></tr><tr><td><div>False</div></td></tr><tr><td><div>/grcdev/default/TipoControl</div></td></tr></table></div></td></tr><tr><td><div><table><tr><td><div>Control Group</div></td></tr><tr><td><div>False</div></td></tr><tr><td><div>/grcdev/default/GrupoControl</div></td></tr></table></div></td></tr><tr><td><div><table><tr><td><div>Objetive Type</div></td></tr><tr><td><div>False</div></td></tr><tr><td><div>/grcdev/default/TipoObjetivo</div></td></tr></table></div></td></tr><tr><td><div><table><tr><td><div>Maturity Level</div></td></tr><tr><td><div>False</div></td></tr><tr><td><div>/grcdev/default/NivelMadurez</div></td></tr></table></div></td></tr><tr><td><div><table><tr><td><div>Policy Catalog</div></td></tr><tr><td><div>False</div></td></tr><tr><td><div>/grcdev/default/CatalogoPolitica</div></td></tr></table></div></td></tr><tr><td><div><table><tr><td><div>Policy Statement</div></td></tr><tr><td><div>False</div></td></tr><tr><td><div>/grcdev/default/DetallePolitica</div></td></tr></table></div></td></tr></table></div></td></tr></table></div></td></tr></table></div></td></tr><tr><td style="font-weight:bold;vertical-align:top;">meta</td><td style="vertical-align:top;">:</td><td><div><table><tr><td style="font-weight:bold;vertical-align:top;">author</td><td style="vertical-align:top;">:</td><td><div>Your Name &lt;you@example.com&gt;</div></td></tr><tr><td style="font-weight:bold;vertical-align:top;">description</td><td style="vertical-align:top;">:</td><td><div>a cool new app</div></td></tr><tr><td style="font-weight:bold;vertical-align:top;">generator</td><td style="vertical-align:top;">:</td><td><div>Web2py Web Framework</div></td></tr><tr><td style="font-weight:bold;vertical-align:top;">keywords</td><td style="vertical-align:top;">:</td><td><div><table><tr><td><div>web2py</div></td></tr><tr><td><div>python</div></td></tr><tr><td><div>framework</div></td></tr></table></div></td></tr></table></div></td></tr><tr><td style="font-weight:bold;vertical-align:top;">models_to_run</td><td style="vertical-align:top;">:</td><td><div><table><tr><td><div>^\\w+\\.py$</div></td></tr><tr><td><div>^grc_demo_data/\\w+\\.py$</div></td></tr><tr><td><div>^grc_demo_data/upload_demo_data/\\w+\\.py$</div></td></tr></table></div></td></tr><tr><td style="font-weight:bold;vertical-align:top;">postprocessing</td><td style="vertical-align:top;">:</td><td><div><table></table></div></td></tr><tr><td style="font-weight:bold;vertical-align:top;">session_client</td><td style="vertical-align:top;">:</td><td><div>177.240.136.131</div></td></tr><tr><td style="font-weight:bold;vertical-align:top;">session_cookie_compression_level</td><td style="vertical-align:top;">:</td><td><div>None</div></td></tr><tr><td style="font-weight:bold;vertical-align:top;">session_cookie_expires</td><td style="vertical-align:top;">:</td><td><div>None</div></td></tr><tr><td style="font-weight:bold;vertical-align:top;">session_data_name</td><td style="vertical-align:top;">:</td><td><div>session_data_grcdev</div></td></tr><tr><td style="font-weight:bold;vertical-align:top;">session_file</td><td style="vertical-align:top;">:</td><td><div>&lt;open file &#x27;/home/grcbit/web2py/applications/grcdev/sessions/003/1c0/177.240.136.131-263183a2-9f96-4b03-b29b-41dfed0a3d6c&#x27;, mode &#x27;rb+&#x27; at 0x7fceb1942c90&gt;</div></td></tr><tr><td style="font-weight:bold;vertical-align:top;">session_filename</td><td style="vertical-align:top;">:</td><td><div>/home/grcbit/web2py/applications/grcdev/sessions/177.240.136.131-263183a2-9f96-4b03-b29b-41dfed0a3d6c</div></td></tr><tr><td style="font-weight:bold;vertical-align:top;">session_hash</td><td style="vertical-align:top;">:</td><td><div>ac5dc4f6f39c178d8ac12c8906d39f45</div></td></tr><tr><td style="font-weight:bold;vertical-align:top;">session_id</td><td style="vertical-align:top;">:</td><td><div>177.240.136.131-263183a2-9f96-4b03-b29b-41dfed0a3d6c</div></td></tr><tr><td style="font-weight:bold;vertical-align:top;">session_id_name</td><td style="vertical-align:top;">:</td><td><div>session_id_grcdev</div></td></tr><tr><td style="font-weight:bold;vertical-align:top;">session_locked</td><td style="vertical-align:top;">:</td><td><div>True</div></td></tr><tr><td style="font-weight:bold;vertical-align:top;">session_masterapp</td><td style="vertical-align:top;">:</td><td><div>grcdev</div></td></tr><tr><td style="font-weight:bold;vertical-align:top;">session_new</td><td style="vertical-align:top;">:</td><td><div>False</div></td></tr><tr><td style="font-weight:bold;vertical-align:top;">session_storage_type</td><td style="vertical-align:top;">:</td><td><div>file</div></td></tr><tr><td style="font-weight:bold;vertical-align:top;">show_toolbar</td><td style="vertical-align:top;">:</td><td><div>False</div></td></tr><tr><td style="font-weight:bold;vertical-align:top;">status</td><td style="vertical-align:top;">:</td><td><div>200</div></td></tr><tr><td style="font-weight:bold;vertical-align:top;">view</td><td style="vertical-align:top;">:</td><td><div>grc_demo_data/upload_demo_data.html</div></td></tr></table></div>'
tRp217
sS'locals'
p218
(dp219
S'update_fields'
p220
g19
sS'table'
p221
S'<Table risk_classification (id, name, descriptio...g, risk_analyst_approval, risk_manager_approval)>'
p222
sS'self'
p223
S'<Set ("risk_classification"."id" = 1)>'
p224
sS'db'
p225
S'<DAL uri="sqlite://storage.sqlite">'
p226
sS'row'
p227
S'<OpRow {}>'
p228
sssS'traceback'
p229
S'Traceback (most recent call last):\n  File "/home/grcbit/web2py/gluon/restricted.py", line 219, in restricted\n    exec(ccode, environment)\n  File "/home/grcbit/web2py/applications/grcdev/controllers/grc_demo_data.py", line 63, in <module>\n  File "/home/grcbit/web2py/gluon/globals.py", line 421, in <lambda>\n    self._caller = lambda f: f()\n  File "/home/grcbit/web2py/applications/grcdev/controllers/grc_demo_data.py", line 48, in upload_demo_data\n    db.risk_classification.update_or_insert((db.risk_classification.id==1), id=1, Nombre="Operacional (Operational)", Descripcion="Riesgos que afectan la habilidad de la organizaci\xc3\xb3n para lograr el plan estrat\xc3\xa9gico. El riesgo operacional es el tipo de riesgo que puede provocar p\xc3\xa9rdidas a la Organizacion debido a errores humanos, procesos internos inadecuados o defectuosos. (Risks that affect the ability of the organization to achieve its strategic plans. They can provoke losses to the Company due to human errors, inadequate or defective internal processes, failures in the systems, etc.)", AprobacionJefeRiesgo=\'T\')\n  File "/home/grcbit/web2py/gluon/packages/dal/pydal/objects.py", line 826, in update_or_insert\n    record.update_record(**values)\n  File "/home/grcbit/web2py/gluon/packages/dal/pydal/helpers/classes.py", line 363, in __call__\n    **newfields\n  File "/home/grcbit/web2py/gluon/packages/dal/pydal/objects.py", line 2431, in update\n    raise ValueError("No fields to update")\nValueError: No fields to update\n'
p230
s.